(lp0
(lp1
(lp2
S''
p3
aa(lp4
aa(lp5
(lp6
S'Ecstasy'
p7
aa(lp8
(dp9
S'username'
p10
S'DutchQualityBeans'
p11
sS'user_score'
p12
S'85'
p13
sS'price'
p14
V\u0e3f28.64
p15
sS'name'
p16
V10X  \u201cPink Squirrel\u201d (Dutch quality bean)
p17
sS'country'
p18
S'Netherlands'
p19
sa(dp20
g10
S'juergen2001'
p21
sg12
S'98'
p22
sg14
V\u0e3f4.66
p23
sg16
S'NEW BATCH!! 1g high quality speed'
p24
sg18
S'Germany'
p25
sa(dp26
g10
S'PillowTalk'
p27
sg12
S'98'
p28
sg14
V\u0e3f31.37
p29
sg16
S'HighQuality XTC PowerButton/QDance 150-180mg 10pcs'
p30
sg18
S'Netherlands'
p31
sa(dp32
g10
S'Ivory'
p33
sg12
S'98'
p34
sg14
V\u0e3f24.55
p35
sg16
S'5 x 150mg MDMA Caps'
p36
sg18
S'United Kingdom'
p37
sa(dp38
g10
S'DRamsterdam'
p39
sg12
S'97'
p40
sg14
V\u0e3f24.75
p41
sg16
S'10 Grey elephants (jumbo) 151mg pure MDMA'
p42
sg18
S'The Netherlands'
p43
sa(dp44
g10
S'etizolam'
p45
sg12
S'98'
p46
sg14
V\u0e3f5.78
p47
sg16
S'500mg 4-methylmethcathinone 4-MMC mephedrone 99%'
p48
sg18
S'United States of America'
p49
sa(dp50
g10
S'DutchShop'
p51
sg12
S'97'
p52
sg14
V\u0e3f2.74
p53
sg16
S'1 x Playboy 140/160 mg'
p54
sg18
S'Netherlands'
p55
sa(dp56
g10
S'derelict'
p57
sg12
S'0'
p58
sg14
V\u0e3f5.45
p59
sg16
V\u25cf 1 x orange "custom" 200-250mg pill \u25cf
p60
sg18
S'United Kingdom'
p61
sa(dp62
g10
S'Sunshine'
p63
sg12
S'97'
p64
sg14
V\u0e3f23.68
p65
sg16
S'0,5 gr MBDB (Eden)'
p66
sg18
S'EU, Netherlands'
p67
sa(dp68
g10
S'PillowTalk'
p69
sg12
S'98'
p70
sg14
V\u0e3f85.20
p71
sg16
S'HighQuality 14gr pure MDMA crystal'
p72
sg18
S'Netherlands'
p73
sa(dp74
g10
S'serioussam'
p75
sg12
S'98'
p76
sg14
V\u0e3f85.11
p77
sg16
S'7 grams pure white MDMA'
p78
sg18
S'Canada'
p79
sa(dp80
g10
S'PillowTalk'
p81
sg12
S'98'
p82
sg14
V\u0e3f29.72
p83
sg16
S'High Quality Dutch MDA 1gram'
p84
sg18
S'Netherlands'
p85
sa(dp86
g10
S'davidd'
p87
sg12
S'99'
p88
sg14
V\u0e3f3.11
p89
sg16
S'1 x 175mg Methylone / 40mg 4-FMA vial'
p90
sg18
S'United States of America'
p91
sa(dp92
g10
S'PillowTalk'
p93
sg12
S'98'
p94
sg14
V\u0e3f66.04
p95
sg16
S'High Quality 5gr pure MDMA crystal'
p96
sg18
S'Netherlands'
p97
sa(dp98
g10
S'XTCking'
p99
sg12
S'99'
p100
sg14
V\u0e3f4.52
p101
sg16
S"Ecstasy ''Pink Squirrels'' 180 mg MDMA !!"
p102
sg18
S'Netherlands'
p103
sa(dp104
g10
S'monkeyseeanddo'
p105
sg12
g58
sg14
V\u0e3f3.95
p106
sg16
S'1x Ecstasy "Blue Dolphins" 120-150 mg MDMA'
p107
sg18
S'United States of America'
p108
sa(dp109
g10
S'namaste'
p110
sg12
S'93'
p111
sg14
V\u0e3f3.55
p112
sg16
S'1 cap MDMA (100mg)'
p113
sg18
S'undeclared'
p114
sa(dp115
g10
S'Dopeboy'
p116
sg12
S'100'
p117
sg14
V\u0e3f66.03
p118
sg16
S'MDMA and MDEA mixture 5 grams'
p119
sg18
S'Canada'
p120
sa(dp121
g10
S'DRamsterdam'
p122
sg12
S'97'
p123
sg14
V\u0e3f48.55
p124
sg16
S'20 Grey elephant(jumbo) lab tested at 151 mg MDMA'
p125
sg18
S'The Netherlands'
p126
sa(dp127
g10
S'PillowTalk'
p128
sg12
S'98'
p129
sg14
V\u0e3f71.00
p130
sg16
S'HighQuality XTC PowerButton/QDance 150-180mg 25pcs'
p131
sg18
S'Netherlands'
p132
sa(dp133
g10
S'freedompeople'
p134
sg12
S'97'
p135
sg14
V\u0e3f75.64
p136
sg16
S'5 Grams - MDMA Special'
p137
sg18
S'Netherlands'
p138
sa(dp139
g10
S'derelict'
p140
sg12
g58
sg14
V\u0e3f212.55
p141
sg16
V\u25cf 50 x orange "custom" 200-250mg pill \u25cf
p142
sg18
S'United Kingdom'
p143
sa(dp144
g10
S'streetpharmacy'
p145
sg12
S'99'
p146
sg14
V\u0e3f52.06
p147
sg16
S'20x - Brown Rolex - 160mg!'
p148
sg18
S'undeclared'
p149
sa(dp150
g10
S'AusBudz'
p151
sg12
S'100'
p152
sg14
V\u0e3f49.53
p153
sg16
S'MDMA Crystal - 500mg Sampler'
p154
sg18
S'Australia'
p155
sa(dp156
g10
S'AusBudz'
p157
sg12
S'100'
p158
sg14
V\u0e3f825.56
p159
sg16
S'MDMA Crystal - 28g - PURE WITHIN AUS'
p160
sg18
S'Australia'
p161
sa(dp162
g10
S'DutchShop'
p163
sg12
S'97'
p164
sg14
V\u0e3f14.35
p165
sg16
S'5 x Playboy 140/160 mg'
p166
sg18
S'Netherlands'
p167
sa(dp168
g10
S'DutchShop'
p169
sg12
S'97'
p170
sg14
V\u0e3f27.24
p171
sg16
S'10 x Playboy 140/160 mg'
p172
sg18
S'Netherlands'
p173
sa(dp174
g10
S'serioussam'
p175
sg12
S'98'
p176
sg14
V\u0e3f43.66
p177
sg16
S'3.5 grams pure white MDMA'
p178
sg18
S'Canada'
p179
sa(dp180
g10
S'AusBudz'
p181
sg12
S'100'
p182
sg14
V\u0e3f66.04
p183
sg16
S'MDMA Crystal - SPECIAL INTRO OFFER - 1g only 7 avl'
p184
sg18
S'Australia'
p185
sa(dp186
g10
S'serioussam'
p187
sg12
S'98'
p188
sg14
V\u0e3f121.05
p189
sg16
S'14 grams pure white MDMA'
p190
sg18
S'Canada'
p191
sa(dp192
g10
S'AusBudz'
p193
sg12
S'100'
p194
sg14
V\u0e3f82.56
p195
sg16
S'MDMA Crystal - 1g!!! AUS - PURE'
p196
sg18
S'Australia'
p197
sa(dp198
g10
S'PillowTalk'
p199
sg12
S'98'
p200
sg14
V\u0e3f132.09
p201
sg16
S'High Quality Dutch MDA 5 gram'
p202
sg18
S'Netherlands'
p203
sa(dp204
g10
S'PillowTalk'
p205
sg12
S'98'
p206
sg14
V\u0e3f56.14
p207
sg16
S'High Quality Dutch MDA 2 gram'
p208
sg18
S'Netherlands'
p209
sa(dp210
g10
S'namaste'
p211
sg12
S'93'
p212
sg14
V\u0e3f17.62
p213
sg16
S'5 cap MDMA (100mg)'
p214
sg18
S'undeclared'
p215
sa(dp216
g10
S'AusBudz'
p217
sg12
S'100'
p218
sg14
V\u0e3f330.22
p219
sg16
S'MDMA Crystal - 7g - PURE - AUS!!'
p220
sg18
S'Australia'
p221
sa(dp222
g10
S'MDMAte'
p223
sg12
g58
sg14
V\u0e3f17.74
p224
sg16
S'1 gramm MDMA'
p225
sg18
S'Germany'
p226
sa(dp227
g10
S'juergen2001'
p228
sg12
S'98'
p229
sg14
V\u0e3f102.37
p230
sg16
S'5g of pure MDMA (crystals, brown)'
p231
sg18
S'Germany'
p232
sa(dp233
g10
S'Unsean'
p234
sg12
S'94'
p235
sg14
V\u0e3f0.01
p236
sg16
S'14G MDMA'
p237
sg18
S'United States of America'
p238
sa(dp239
g10
S'freedompeople'
p240
sg12
S'97'
p241
sg14
V\u0e3f144.84
p242
sg16
S'10 grams MDMA - Bulk Special'
p243
sg18
S'Netherlands'
p244
sa(dp245
g10
S'PillowTalk'
p246
sg12
S'98'
p247
sg14
V\u0e3f0.01
p248
sg16
S'High Quality pure MDMA crystal (SPECIFIC ORDER)'
p249
sg18
S'Netherlands'
p250
sa(dp251
g10
S'derelict'
p252
sg12
g58
sg14
V\u0e3f47.98
p253
sg16
V\u25cf 10 x orange "custom" 200-250mg pill \u25cf
p254
sg18
S'United Kingdom'
p255
sa(dp256
g10
S'derelict'
p257
sg12
g58
sg14
V\u0e3f25.72
p258
sg16
V\u25cf 5 x orange "custom" 200-250mg pill \u25cf
p259
sg18
S'United Kingdom'
p260
sa(dp261
g10
S'Sunshine'
p262
sg12
S'97'
p263
sg14
V\u0e3f13.51
p264
sg16
S'250mg MBDB (Eden)'
p265
sg18
S'EU, Netherlands'
p266
sa(dp267
g10
S'purp13'
p268
sg12
g58
sg14
V\u0e3f4.04
p269
sg16
S'(1 Pill) Blue Harley Davidson (150 MG)'
p270
sg18
S'USA'
p271
sa(dp272
g10
S'XTCking'
p273
sg12
S'99'
p274
sg14
V\u0e3f3.47
p275
sg16
S"Ecstasy ''Mercedes Benz'' 155 mg MDMA !!"
p276
sg18
S'Netherlands'
p277
sa(dp278
g10
S'Dopeboy'
p279
sg12
S'100'
p280
sg14
V\u0e3f13.21
p281
sg16
S'MDMA and MDEA mixture 500mg'
p282
sg18
S'Canada'
p283
sa(dp284
g10
S'Unsean'
p285
sg12
S'94'
p286
sg14
V\u0e3f0.01
p287
sg16
S'1oz (28g) MDMA'
p288
sg18
S'United States of America'
p289
sa(dp290
g10
S'PillowTalk'
p291
sg12
S'98'
p292
sg14
V\u0e3f338.48
p293
sg16
S'High Quality 28gr (1 oz) pure MDMA crystal'
p294
sg18
S'Netherlands'
p295
sa(dp296
g10
S'purp13'
p297
sg12
g58
sg14
V\u0e3f30.27
p298
sg16
S'(10 Pills) Blue Harley Davidson (150 MG)'
p299
sg18
S'USA'
p300
sa(dp301
g10
S'purp13'
p302
sg12
g58
sg14
V\u0e3f67.96
p303
sg16
S'(25 Pills) Blue Harley Davidson (150 MG)'
p304
sg18
S'USA'
p305
sa(dp306
g10
S'etizolam'
p307
sg12
S'98'
p308
sg14
V\u0e3f92.13
p309
sg16
S'10g 4-methylmethcathinone 4-MMC mephedrone 99%'
p310
sg18
S'US'
p311
sa(dp312
g10
S'Unsean'
p313
sg12
S'94'
p314
sg14
V\u0e3f0.00
p315
sg16
S'7G MDMA'
p316
sg18
S'United States of America'
p317
sa(dp318
g10
S'davidd'
p319
sg12
S'99'
p320
sg14
V\u0e3f266.29
p321
sg16
S'GROUP BUY: 100g 98.5%+ PURE crystalline Methylone'
p322
sg18
S'United States of America'
p323
sa(dp324
g10
S'juergen2001'
p325
sg12
S'98'
p326
sg14
V\u0e3f20.80
p327
sg16
S'1 g of pure MDMA (crystals)'
p328
sg18
S'Germany'
p329
sa(dp330
g10
S'schizofreen'
p331
sg12
S'93'
p332
sg14
V\u0e3f2.78
p333
sg16
S'Powerbutton / Q-dance'
p334
sg18
S'Netherlands'
p335
sa(dp336
g10
S'PillowTalk'
p337
sg12
S'98'
p338
sg14
V\u0e3f16.51
p339
sg16
S'High Quality 1gr pure MDMA crystal'
p340
sg18
S'Netherlands'
p341
sa(dp342
g10
S'Ivory'
p343
sg12
S'98'
p344
sg14
V\u0e3f20.85
p345
sg16
S'1Gram Crystal MDMA - REAGENT TESTED'
p346
sg18
S'United Kingdom'
p347
sa(dp348
g10
S'DutchQualityBeans'
p349
sg12
S'85'
p350
sg14
V\u0e3f2.99
p351
sg16
V1X   \u201cGreen Elephant/Jumbo\u201d ( Dutch quality bean)
p352
sg18
S'Netherlands'
p353
sa(dp354
g10
S'juergen2001'
p355
sg12
S'98'
p356
sg14
V\u0e3f40.28
p357
sg16
S'2g -MDMA-NEW BATCH(BROWN CRYSTALS)FROM GERMANY'
p358
sg18
S'Germany'
p359
sa(dp360
g10
S'aakoven'
p361
sg12
S'98'
p362
sg14
V\u0e3f16.51
p363
sg16
S'1 GR -MDMA - REALLY GOOD  QUALITY  PURE-'
p364
sg18
S'Netherlands'
p365
sa(dp366
g10
S'DutchQualityBeans'
p367
sg12
S'85'
p368
sg14
V\u0e3f3.12
p369
sg16
V1X  \u201cPink Squirrel\u201d (Dutch quality bean)
p370
sg18
S'Netherlands'
p371
sa(dp372
g10
S'DRamsterdam'
p373
sg12
S'97'
p374
sg14
V\u0e3f18.31
p375
sg16
S'One gram of pure cristal MDMA '
p376
sg18
S'The Netherlands'
p377
sa(dp378
g10
S'freedompeople'
p379
sg12
S'97'
p380
sg14
V\u0e3f38.80
p381
sg16
S'2.5 Grams - MDMA Special'
p382
sg18
S'Netherlands'
p383
sa(dp384
g10
S'DutchQualityBeans'
p385
sg12
S'85'
p386
sg14
V\u0e3f14.70
p387
sg16
V5X  \u201cPink Squirrel\u201d (Dutch quality bean)
p388
sg18
S'Netherlands'
p389
sa(dp390
g10
S'PillowTalk'
p391
sg12
S'98'
p392
sg14
V\u0e3f31.37
p393
sg16
S'High Quality 2gr pure MDMA crystal'
p394
sg18
S'Netherlands'
p395
sa(dp396
g10
S'streetpharmacy'
p397
sg12
S'99'
p398
sg14
V\u0e3f3.50
p399
sg16
S'Brown Rolex - 160mg! - Discounts available'
p400
sg18
S'undeclared'
p401
sa(dp402
g10
S'freedompeople'
p403
sg12
S'97'
p404
sg14
V\u0e3f19.03
p405
sg16
S'1 Gram - MDMA (Special Offer)'
p406
sg18
S'Netherlands'
p407
sa(dp408
g10
S'Dopeboy'
p409
sg12
S'100'
p410
sg14
V\u0e3f19.81
p411
sg16
S'MDMA and MDEA mixure 1 gram'
p412
sg18
S'Canada'
p413
sa(dp414
g10
S'3Jane'
p415
sg12
S'97'
p416
sg14
V\u0e3f16.51
p417
sg16
S'1.0g MDMA'
p418
sg18
S'Canada'
p419
sa(dp420
g10
S'DRamsterdam'
p421
sg12
S'97'
p422
sg14
V\u0e3f13.03
p423
sg16
S'5 Grey elephant(jumbo) 151 mg pure MDMA'
p424
sg18
S'The Netherlands'
p425
sa(dp426
g10
S'Dopeboy'
p427
sg12
S'100'
p428
sg14
V\u0e3f8.27
p429
sg16
S'MDMA and MDEA mixture 250mg'
p430
sg18
S'Canada'
p431
sa(dp432
g10
S'aakoven'
p433
sg12
S'98'
p434
sg14
V\u0e3f33.14
p435
sg16
S'2 GR MDMA -    PURE    QUALITY'
p436
sg18
S'Netherlands'
p437
sa(dp438
g10
S'DRamsterdam'
p439
sg12
S'97'
p440
sg14
V\u0e3f65.47
p441
sg16
S'Five grams of pure MDMA christals'
p442
sg18
S'The Netherlands'
p443
sa(dp444
g10
S'aakoven'
p445
sg12
S'98'
p446
sg14
V\u0e3f33.20
p447
sg16
S'2 GR MDMA - PURE QUALITY *  +0.5 GR FOR FREE **'
p448
sg18
S'Netherlands'
p449
sa(dp450
g10
S'juergen2001'
p451
sg12
S'98'
p452
sg14
V\u0e3f19.97
p453
sg16
S'NEW BATCH!! 5g high quality speed!'
p454
sg18
S'Germany'
p455
sa(dp456
g10
S'hashuk'
p457
sg12
S'99'
p458
sg14
V\u0e3f11.53
p459
sg16
S'0.5g crystal MDMA RA tested :D'
p460
sg18
S'United Kingdom'
p461
sa(dp462
g10
S'davidd'
p463
sg12
S'99'
p464
sg14
V\u0e3f2.33
p465
sg16
S'1x 175mg 98.5% PURE Methylone Pre-dissolved Vial'
p466
sg18
S'United States of America'
p467
sa(dp468
g10
S'davidd'
p469
sg12
S'99'
p470
sg14
V\u0e3f6.60
p471
sg16
S'1x 500mg 98.5% Crystalline Methylone (BK-MDMA, M1)'
p472
sg18
S'United States of America'
p473
sa(dp474
g10
S'3Jane'
p475
sg12
S'97'
p476
sg14
V\u0e3f29.72
p477
sg16
S'2.0g MDMA'
p478
sg18
S'Canada'
p479
sa(dp480
g10
S'PillowTalk'
p481
sg12
S'98'
p482
sg14
V\u0e3f14.86
p483
sg16
S'HighQuality XTC PowerButton/Q-Dance 150-180mg 5pcs'
p484
sg18
S'Netherlands'
p485
sa(dp486
g10
S'DRamsterdam'
p487
sg12
S'97'
p488
sg14
V\u0e3f114.57
p489
sg16
S'Ten grams of pure MDMA Christals (Bulk discount!)'
p490
sg18
S'The Netherlands'
p491
sa(dp492
g10
S'streetpharmacy'
p493
sg12
S'99'
p494
sg14
V\u0e3f28.26
p495
sg16
S'10x - Brown Rolex - 160mg!'
p496
sg18
S'Germany'
p497
sa(dp498
g10
S'DutchQualityBeans'
p499
sg12
S'85'
p500
sg14
V\u0e3f27.33
p501
sg16
V10X   \u201cGreen Elephant/Jumbo" (Dutch quality bean)
p502
sg18
S'Netherlands'
p503
sa(dp504
g10
S'hashuk'
p505
sg12
S'99'
p506
sg14
V\u0e3f21.51
p507
sg16
S'1g crystal MDMA RA tested :D'
p508
sg18
S'United Kingdom'
p509
sa(dp510
g10
S'serioussam'
p511
sg12
S'98'
p512
sg14
V\u0e3f16.42
p513
sg16
S'1 gram pure white MDMA'
p514
sg18
S'Canada'
p515
sa(dp516
g10
S'Ivory'
p517
sg12
S'98'
p518
sg14
V\u0e3f66.57
p519
sg16
S'3.5Grams Crystal MDMA - REAGENT TESTED'
p520
sg18
S'United Kingdom'
p521
sa(dp522
g10
S'davidd'
p523
sg12
S'99'
p524
sg14
V\u0e3f4.35
p525
sg16
S'1x 350mg 98.5% PURE Methylone Pre-dissolved Vial'
p526
sg18
S'United States of America'
p527
sa(dp528
g10
S'DutchQualityBeans'
p529
sg12
S'85'
p530
sg14
V\u0e3f14.45
p531
sg16
V5X  \u201cGreen Elephant\u201d (Dutch quality bean)
p532
sg18
S'Netherlands'
p533
saaa(lp534
(lp535
S'Other'
p536
aa(lp537
(dp538
g10
S'vanillasmoke'
p539
sg12
S'100'
p540
sg14
V\u0e3f14.10
p541
sg16
S'Sildenafil Citrate ( Viagra )  100 mg  -  10 pack'
p542
sg18
S'United States of America'
p543
sa(dp544
g10
S'davidd'
p545
sg12
S'99'
p546
sg14
V\u0e3f2.28
p547
sg16
S'1x 100mg Sildenafil Citrate IP tablets'
p548
sg18
S'United States of America'
p549
sa(dp550
g10
S'hashuk'
p551
sg12
S'99'
p552
sg14
V\u0e3f2.89
p553
sg16
S'0.1g JWH018 - The original & best THC destroyer!!'
p554
sg18
S'UK'
p555
sa(dp556
g10
S'collapses'
p557
sg12
S'100'
p558
sg14
V\u0e3f7.37
p559
sg16
S'1 Box (4 pills) Generic Viagra'
p560
sg18
S'US'
p561
sa(dp562
g10
S'Sunshine'
p563
sg12
S'97'
p564
sg14
V\u0e3f19.09
p565
sg16
S'Cialis 500mg (one dose is 10-20mg!)'
p566
sg18
S'EU, Netherlands'
p567
sa(dp568
g10
S'auto43'
p569
sg12
S'99'
p570
sg14
V\u0e3f15.21
p571
sg16
S'Enanject (Testosterone Enanthate) 10ML'
p572
sg18
S'USA'
p573
sa(dp574
g10
S'theba'
p575
sg12
S'100'
p576
sg14
V\u0e3f6.45
p577
sg16
S'Carisoprodol (Soma) 350mg x 10 tablets'
p578
sg18
S'United States of America'
p579
sa(dp580
g10
S'Sunshine'
p581
sg12
S'97'
p582
sg14
V\u0e3f5.61
p583
sg16
S'GHB - 5ml vial'
p584
sg18
S'EU, Netherlands'
p585
sa(dp586
g10
S'swch'
p587
sg12
S'94'
p588
sg14
V\u0e3f3.44
p589
sg16
S'2 x 100mg Sildenafil (Viagra/Eriacta)'
p590
sg18
S'Switzerland'
p591
sa(dp592
g10
S'pharma1'
p593
sg12
S'93'
p594
sg14
V\u0e3f7.15
p595
sg16
S'Nolvadex 20mg x 30 tabs'
p596
sg18
S'UK'
p597
sa(dp598
g10
S'swch'
p599
sg12
S'94'
p600
sg14
V\u0e3f5.61
p601
sg16
S'4 x 100mg Sildenafil (Viagra/Eriacta)'
p602
sg18
S'Switzerland'
p603
sa(dp604
g10
S'Dopeboy'
p605
sg12
S'100'
p606
sg14
V\u0e3f6.51
p607
sg16
S'GHB Solid chunks 5 grams'
p608
sg18
S'Canada'
p609
sa(dp610
g10
S'PriscillaMarie90'
p611
sg12
S'100'
p612
sg14
V\u0e3f5.71
p613
sg16
S'Comfortis for Dogs: 60 - 120 lbs.'
p614
sg18
S'USA'
p615
sa(dp616
g10
S'auto43'
p617
sg12
S'99'
p618
sg14
V\u0e3f82.00
p619
sg16
S'100 x 50mg Oxandrolone Tablets'
p620
sg18
S'USA'
p621
sa(dp622
g10
S'PaythePiper'
p623
sg12
S'99'
p624
sg14
V\u0e3f6.75
p625
sg16
S'4 x 100mg Genric Viagra.'
p626
sg18
S'United States of America'
p627
sa(dp628
g10
S'gambit'
p629
sg12
g58
sg14
V\u0e3f3.60
p630
sg16
S'Liquid  GHB (5ml vials)'
p631
sg18
S'The Netherlands'
p632
sa(dp633
g10
S'auto43'
p634
sg12
S'99'
p635
sg14
V\u0e3f49.98
p636
sg16
S'100 x 50mg    Winstrol Tablets  BD'
p637
sg18
S'USA'
p638
sa(dp639
g10
S'auto43'
p640
sg12
S'99'
p641
sg14
V\u0e3f15.21
p642
sg16
S'Cypioject Testosterone Cypionate (10ML)'
p643
sg18
S'USA'
p644
sa(dp645
g10
S'auto43'
p646
sg12
S'99'
p647
sg14
V\u0e3f14.94
p648
sg16
S'Testosterone Suspension (10ML)'
p649
sg18
S'US'
p650
sa(dp651
g10
S'davidd'
p652
sg12
S'99'
p653
sg14
V\u0e3f5.94
p654
sg16
S'30 x 500mg  Amoxicillin capsules (Antibiotic)'
p655
sg18
S'United States of America'
p656
sa(dp657
g10
S'generalm3sS'
p658
sg12
S'100'
p659
sg14
V\u0e3f14.88
p660
sg16
S'10x 100MG Sildenafil'
p661
sg18
S'United Kingdom'
p662
sa(dp663
g10
S'witcher'
p664
sg12
S'86'
p665
sg14
V\u0e3f31.97
p666
sg16
S'Anavar (OXandrolone) 10mg/tab 100 tabs'
p667
sg18
S'UK'
p668
sa(dp669
g10
S'auris'
p670
sg12
S'100'
p671
sg14
V\u0e3f2.84
p672
sg16
S'10 x 25 mg blister pack of Ketipinor quetiapine'
p673
sg18
S'FINLAND, EU'
p674
sa(dp675
g10
S'lasagna75'
p676
sg12
S'100'
p677
sg14
V\u0e3f5.99
p678
sg16
S'10 x Lexapro (GENERIC) Escitalopram Oxalate 20mg'
p679
sg18
S'My Base'
p680
sa(dp681
g10
S'pharma1'
p682
sg12
S'93'
p683
sg14
V\u0e3f14.70
p684
sg16
S'Generic Viagra 100mg x 4Tabs'
p685
sg18
S'Worldwide'
p686
sa(dp687
g10
S'auto43'
p688
sg12
S'99'
p689
sg14
V\u0e3f18.61
p690
sg16
S'Trenaject Trenbolone Acetate (10ML)'
p691
sg18
S'USA'
p692
sa(dp693
g10
S'Redenbacher'
p694
sg12
S'97'
p695
sg14
V\u0e3f3.18
p696
sg16
S'Ephedrine HCL 304mg (38 x 8mg) - Best price on SR'
p697
sg18
S'Canada'
p698
sa(dp699
g10
S'peaceandlove'
p700
sg12
S'99'
p701
sg14
V\u0e3f9.91
p702
sg16
S'Ephedrine 30mg x 50'
p703
sg18
S'undeclared'
p704
sa(dp705
g10
S'etizolam'
p706
sg12
S'98'
p707
sg14
V\u0e3f57.77
p708
sg16
S'500mL bottle of 99% gamma-butyrolactone (GBL)'
p709
sg18
S'EU'
p710
sa(dp711
g10
S'PriscillaMarie90'
p712
sg12
S'100'
p713
sg14
V\u0e3f5.60
p714
sg16
S'Comfortis for Dogs: 20 - 40 lbs & 40 - 60 lbs'
p715
sg18
S'USA'
p716
sa(dp717
g10
S'badboy97'
p718
sg12
g58
sg14
V\u0e3f2.04
p719
sg16
S'20 High Quality King Size Hand Made Cigarettes'
p720
sg18
S'United States of America'
p721
sa(dp722
g10
S'AusBudz'
p723
sg12
S'100'
p724
sg14
V\u0e3f7.35
p725
sg16
S'Cialis 20mg Lilly Brand'
p726
sg18
S'Australia'
p727
sa(dp728
g10
S'anchientlib'
p729
sg12
S'100'
p730
sg14
V\u0e3f3.30
p731
sg16
S'Carisoprodol x 5 (Soma) 350MG'
p732
sg18
S'United States of America'
p733
sa(dp734
g10
S'swch'
p735
sg12
S'94'
p736
sg14
V\u0e3f2.63
p737
sg16
S'1 Cigar ROBUSTO (12,7cm x 1,9cm'
p738
sg18
S'Switzerland'
p739
sa(dp740
g10
S'PriscillaMarie90'
p741
sg12
S'100'
p742
sg14
V\u0e3f0.85
p743
sg16
S'Panacur C Wormer for Dogs - 10lbs'
p744
sg18
S'USA'
p745
sa(dp746
g10
S'brownbud'
p747
sg12
S'84'
p748
sg14
V\u0e3f10.23
p749
sg16
S'FLUDAC CAP FLUOXETINE HCL 60MG 10'
p750
sg18
S'India'
p751
sa(dp752
g10
S'brownbud'
p753
sg12
S'84'
p754
sg14
V\u0e3f6.60
p755
sg16
S'FLUMED CAP FLUCONAZOLE 50MG 4'
p756
sg18
S'India'
p757
sa(dp758
g10
S'brownbud'
p759
sg12
S'84'
p760
sg14
V\u0e3f4.95
p761
sg16
S'FLUDAC CAP FLUOXETINE HCL 20MG 10'
p762
sg18
S'India'
p763
sa(dp764
g10
S'brownbud'
p765
sg12
S'84'
p766
sg14
V\u0e3f12.21
p767
sg16
S'FLUMED CAP FLUCONAZOLE 100MG 4'
p768
sg18
S'India'
p769
sa(dp770
g10
S'brownbud'
p771
sg12
S'84'
p772
sg14
V\u0e3f2.64
p773
sg16
S'FLUDAC CAP FLUOXETINE HCL 10MG 10'
p774
sg18
S'India'
p775
sa(dp776
g10
S'brownbud'
p777
sg12
S'84'
p778
sg14
V\u0e3f4.29
p779
sg16
S'FLUMED CAP FLUCONAZOLE 150MG 1'
p780
sg18
S'India'
p781
sa(dp782
g10
S'brownbud'
p783
sg12
S'84'
p784
sg14
V\u0e3f12.21
p785
sg16
S'VALCIVIR TAB VALACYCLOVIR 500MG 3'
p786
sg18
S'India'
p787
sa(dp788
g10
S'brownbud'
p789
sg12
S'84'
p790
sg14
V\u0e3f27.39
p791
sg16
S'HERPEX TAB DT ACYCLOVIR 800MG 10'
p792
sg18
S'India'
p793
sa(dp794
g10
S'brownbud'
p795
sg12
S'84'
p796
sg14
V\u0e3f19.47
p797
sg16
S'VALCIVIR TAB VALACYCLOVIR 1000MG 3'
p798
sg18
S'India'
p799
sa(dp800
g10
S'brownbud'
p801
sg12
S'84'
p802
sg14
V\u0e3f2.97
p803
sg16
S'ATIVAN TAB LORAZEPAM 2 MG 10'
p804
sg18
S'India'
p805
sa(dp806
g10
S'brownbud'
p807
sg12
S'84'
p808
sg14
V\u0e3f1.98
p809
sg16
S'ATIVAN TAB LORAZEPAM 1 MG 10 $6'
p810
sg18
S'India'
p811
sa(dp812
g10
S'brownbud'
p813
sg12
S'84'
p814
sg14
V\u0e3f5.28
p815
sg16
S'DIBETA SR TAB METFORMIN 1G 10'
p816
sg18
S'India'
p817
sa(dp818
g10
S'brownbud'
p819
sg12
S'84'
p820
sg14
V\u0e3f16.17
p821
sg16
S'GABANTIN CAP GABAPENTIN 300MG 10'
p822
sg18
S'India'
p823
sa(dp824
g10
S'gambit'
p825
sg12
g58
sg14
V\u0e3f85.81
p826
sg16
S'1L of 99,98% Gamma-Butyrolactone (GBL)'
p827
sg18
S'Netherlands'
p828
sa(dp829
g10
S'brownbud'
p830
sg12
S'84'
p831
sg14
V\u0e3f12.21
p832
sg16
S'RAZO IR TAB RABEPRAZOLE 20 MG 10'
p833
sg18
S'India'
p834
sa(dp835
g10
S'brownbud'
p836
sg12
S'84'
p837
sg14
V\u0e3f5.94
p838
sg16
S'GABANTIN CAP GABAPENTIN 100MG 10'
p839
sg18
S'India'
p840
sa(dp841
g10
S'brownbud'
p842
sg12
S'84'
p843
sg14
V\u0e3f19.47
p844
sg16
S'GABANTIN CAP GABAPENTIN 400MG 10'
p845
sg18
S'India'
p846
sa(dp847
g10
S'brownbud'
p848
sg12
S'84'
p849
sg14
V\u0e3f11.55
p850
sg16
S'RAZO TAB RABEPRAZOLE 20 MG 10'
p851
sg18
S'India'
p852
sa(dp853
g10
S'brownbud'
p854
sg12
S'84'
p855
sg14
V\u0e3f6.60
p856
sg16
S'RAZO TAB RABEPRAZOLE 10 MG 10'
p857
sg18
S'India'
p858
sa(dp859
g10
S'brownbud'
p860
sg12
S'84'
p861
sg14
V\u0e3f5.94
p862
sg16
S'REBOSE TAB ACARBOSE 25MG 10'
p863
sg18
S'India'
p864
sa(dp865
g10
S'brownbud'
p866
sg12
S'84'
p867
sg14
V\u0e3f2.31
p868
sg16
S'GLUFORMIN TAB METFORMIN 500MG 10'
p869
sg18
S'India'
p870
sa(dp871
g10
S'brownbud'
p872
sg12
S'84'
p873
sg14
V\u0e3f3.63
p874
sg16
S'RABESEC TAB RABEPRAZOLE 10 MG 10'
p875
sg18
S'India'
p876
sa(dp877
g10
S'brownbud'
p878
sg12
S'84'
p879
sg14
V\u0e3f5.61
p880
sg16
S'RABESEC TAB RABEPRAZOLE 20 MG 10'
p881
sg18
S'India'
p882
sa(dp883
g10
S'brownbud'
p884
sg12
S'84'
p885
sg14
V\u0e3f11.88
p886
sg16
S'REBOSE TAB ACARBOSE 50MG 10'
p887
sg18
S'India'
p888
sa(dp889
g10
S'brownbud'
p890
sg12
S'84'
p891
sg14
V\u0e3f1.65
p892
sg16
S'DELTACORTIL TAB PREDNISOLONE 5MG'
p893
sg18
S'India'
p894
sa(dp895
g10
S'brownbud'
p896
sg12
S'84'
p897
sg14
V\u0e3f2.97
p898
sg16
S'DELTACORTIL FORTE TAB PREDNISOLONE 10MG 10'
p899
sg18
S'India'
p900
sa(dp901
g10
S'brownbud'
p902
sg12
S'84'
p903
sg14
V\u0e3f11.55
p904
sg16
S'ACIVIR DT TAB ACYCLOVIR 400MG 5'
p905
sg18
S'India'
p906
sa(dp907
g10
S'brownbud'
p908
sg12
S'84'
p909
sg14
V\u0e3f19.80
p910
sg16
S'ACIVIR DT TAB ACYCLOVIR 800MG 5'
p911
sg18
S'India'
p912
sa(dp913
g10
S'brownbud'
p914
sg12
S'84'
p915
sg14
V\u0e3f22.11
p916
sg16
S'BUPRON SR TAB BUPROPION HCL 150MG 10'
p917
sg18
S'India'
p918
sa(dp919
g10
S'brownbud'
p920
sg12
S'84'
p921
sg14
V\u0e3f27.06
p922
sg16
S'ZIPDEP TAB MITRAZAPINE 45MG 10'
p923
sg18
S'India'
p924
sa(dp925
g10
S'luxxia'
p926
sg12
S'100'
p927
sg14
V\u0e3f1.17
p928
sg16
S'10 x 150mg Wellbutrin XL (Bupropion HCL XL)'
p929
sg18
S'United States of America'
p930
sa(dp931
g10
S'brownbud'
p932
sg12
S'84'
p933
sg14
V\u0e3f3.30
p934
sg16
S'GLUFORMIN TAB METFORMIN 850MG 10'
p935
sg18
S'India'
p936
sa(dp937
g10
S'brownbud'
p938
sg12
S'84'
p939
sg14
V\u0e3f14.85
p940
sg16
S'FINAST TAB FINASTERIDE 5MG 10'
p941
sg18
S'India'
p942
sa(dp943
g10
S'brownbud'
p944
sg12
S'84'
p945
sg14
V\u0e3f18.15
p946
sg16
S'FINAST T CAP FINASTERIDE 5MG, TAMSULOSIN 0.4MG 10'
p947
sg18
S'India'
p948
sa(dp949
g10
S'brownbud'
p950
sg12
S'84'
p951
sg14
V\u0e3f8.91
p952
sg16
S'FERTOMID TAB CLOMIPHENE CITRATE 100MG 5'
p953
sg18
S'India'
p954
sa(dp955
g10
S'brownbud'
p956
sg12
S'84'
p957
sg14
V\u0e3f4.95
p958
sg16
S'FERTOMID TAB CLOMIPHENE CITRATE 25MG 10'
p959
sg18
S'India'
p960
sa(dp961
g10
S'brownbud'
p962
sg12
S'84'
p963
sg14
V\u0e3f9.57
p964
sg16
S'FERTOMID TAB CLOMIPHENE CITRATE 50MG 10'
p965
sg18
S'India'
p966
sa(dp967
g10
S'brownbud'
p968
sg12
S'84'
p969
sg14
V\u0e3f5.94
p970
sg16
S'FINAX TAB FINASTERIDE 1MG 10'
p971
sg18
S'India'
p972
sa(dp973
g10
S'brownbud'
p974
sg12
S'84'
p975
sg14
V\u0e3f11.88
p976
sg16
S'ACIVIR DT TAB ACYCLOVIR 200MG 10'
p977
sg18
S'India'
p978
sa(dp979
g10
S'anchientlib'
p980
sg12
S'100'
p981
sg14
V\u0e3f0.99
p982
sg16
S'Carisoprodol (Soma) 350MG'
p983
sg18
S'United States of America'
p984
sa(dp985
g10
S'pharma1'
p986
sg12
S'93'
p987
sg14
V\u0e3f14.85
p988
sg16
S'T3 - 25mcg '
p989
sg18
S'United Kingdom'
p990
sa(dp991
g10
S'witcher'
p992
sg12
S'86'
p993
sg14
V\u0e3f55.64
p994
sg16
S'Anadrol (Oxymetholon) 50mg/tab  60 tabs'
p995
sg18
S'UK'
p996
sa(dp997
g10
S'brownbud'
p998
sg12
S'84'
p999
sg14
V\u0e3f3.30
p1000
sg16
S'CIPLOX TAB CIPROFLOXACIN 100MG 10'
p1001
sg18
S'India'
p1002
sa(dp1003
g10
S'witcher'
p1004
sg12
S'86'
p1005
sg14
V\u0e3f27.82
p1006
sg16
S'Anadrol (Oxymetholon) 50mg/tab 20 tabs'
p1007
sg18
S'UK'
p1008
sa(dp1009
g10
S'auto43'
p1010
sg12
S'99'
p1011
sg14
V\u0e3f27.49
p1012
sg16
S'10 x Testonon 250 ampuoles - Zaffa'
p1013
sg18
S'USA'
p1014
sa(dp1015
g10
S'proline'
p1016
sg12
g58
sg14
V\u0e3f103.05
p1017
sg16
S'Galenika Testo E Depo 250mg/ml - 50 pcs.-'
p1018
sg18
S'Germany'
p1019
sa(dp1020
g10
S'luxxia'
p1021
sg12
S'100'
p1022
sg14
V\u0e3f1.11
p1023
sg16
S'30 x Melatonin 3mg (A Safe & Effective Sleep Aid)'
p1024
sg18
S'United States of America'
p1025
sa(dp1026
g10
S'PaythePiper'
p1027
sg12
S'99'
p1028
sg14
V\u0e3f8.06
p1029
sg16
S'Blister Pack: 10 x 200mg Seroquel (Qutipin)'
p1030
sg18
S'United States of America'
p1031
sa(dp1032
g10
S'Redenbacher'
p1033
sg12
S'97'
p1034
sg14
V\u0e3f4.29
p1035
sg16
S'Celebrex 200mg x 20  - Pain Reliever '
p1036
sg18
S'North America'
p1037
sa(dp1038
g10
S'auris'
p1039
sg12
S'100'
p1040
sg14
V\u0e3f3.15
p1041
sg16
S'14 x 5 mg Cipralex escilatopram tabs blister sheet'
p1042
sg18
S'FINLAND, EU'
p1043
sa(dp1044
g10
S'auris'
p1045
sg12
S'100'
p1046
sg14
V\u0e3f7.88
p1047
sg16
S'25 x 25mg Atarax tablets blister pack, anxiolytic'
p1048
sg18
S'Finland'
p1049
sa(dp1050
g10
S'PriscillaMarie90'
p1051
sg12
S'100'
p1052
sg14
V\u0e3f5.33
p1053
sg16
S'Comfortis for Dogs: 5 - 10 & 10 - 20 lbs.'
p1054
sg18
S'USA'
p1055
sa(dp1056
g10
S'witcher'
p1057
sg12
S'86'
p1058
sg14
V\u0e3f16.76
p1059
sg16
S'Dianabol (Methanabol) 10mg/tab 100 tabs'
p1060
sg18
S'UK'
p1061
sa(dp1062
g10
S'davidd'
p1063
sg12
S'99'
p1064
sg14
V\u0e3f3.30
p1065
sg16
S'10 x 25mg Chlorpromazine HCL tablets'
p1066
sg18
S'United States of America'
p1067
sa(dp1068
g10
S'brownbud'
p1069
sg12
S'84'
p1070
sg14
V\u0e3f5.61
p1071
sg16
S'AMOXIL CAP AMOXYCILLIN 500MG 10'
p1072
sg18
S'India'
p1073
sa(dp1074
g10
S'davidd'
p1075
sg12
S'99'
p1076
sg14
V\u0e3f4.27
p1077
sg16
S'10 x 25mg Promethazine (perfect for opiate users!)'
p1078
sg18
S'United States of America'
p1079
sa(dp1080
g10
S'omg'
p1081
sg12
S'100'
p1082
sg14
V\u0e3f6.23
p1083
sg16
S'10g Datura Stramonium Extract'
p1084
sg18
S'US'
p1085
sa(dp1086
g10
S'auto43'
p1087
sg12
S'99'
p1088
sg14
V\u0e3f21.15
p1089
sg16
S'Primoject (methenolone enanthate) 10ML'
p1090
sg18
S'USA'
p1091
sa(dp1092
g10
S'ibanez88e'
p1093
sg12
S'97'
p1094
sg14
V\u0e3f9.75
p1095
sg16
S'Diclofenac Sodium 75mg x 10 Pills'
p1096
sg18
S'US'
p1097
sa(dp1098
g10
S'pharma1'
p1099
sg12
S'93'
p1100
sg14
V\u0e3f8.25
p1101
sg16
S'Proviron 25mg x 10 tabs'
p1102
sg18
S'Worldwide'
p1103
sa(dp1104
g10
S'direwolf'
p1105
sg12
S'100'
p1106
sg14
V\u0e3f11.95
p1107
sg16
S'Nicotrol Inhaler 168 cartridges Box'
p1108
sg18
S'US'
p1109
sa(dp1110
g10
S'pharma1'
p1111
sg12
S'93'
p1112
sg14
V\u0e3f7.43
p1113
sg16
S'Lertozole 2.5mg x 10 tabs'
p1114
sg18
S'Worldwide'
p1115
sa(dp1116
g10
S'brownbud'
p1117
sg12
S'84'
p1118
sg14
V\u0e3f21.78
p1119
sg16
S'CIPLOX TAB CIPROFLOXACIN 750MG 10'
p1120
sg18
S'India'
p1121
sa(dp1122
g10
S'auto43'
p1123
sg12
S'99'
p1124
sg14
V\u0e3f145.62
p1125
sg16
S'Human Growth Hormone HGH   (100iu)'
p1126
sg18
S'USA'
p1127
sa(dp1128
g10
S'witcher'
p1129
sg12
S'86'
p1130
sg14
V\u0e3f30.81
p1131
sg16
S'Please check the list'
p1132
sg18
S'UK'
p1133
sa(dp1134
g10
S'proline'
p1135
sg12
g58
sg14
V\u0e3f22.81
p1136
sg16
S'Galenika Testo E Depo 250mg/ml - 10 pcs.-'
p1137
sg18
S'Germany'
p1138
sa(dp1139
g10
S'auto43'
p1140
sg12
S'99'
p1141
sg14
V\u0e3f252.53
p1142
sg16
S'Hygetropin HGH     200iu/kit'
p1143
sg18
S'USA'
p1144
sa(dp1145
g10
S'auto43'
p1146
sg12
S'99'
p1147
sg14
V\u0e3f21.84
p1148
sg16
S'Masterject 100 (Drostanolone Propionate) 10ML'
p1149
sg18
S'USA'
p1150
sa(dp1151
g10
S'pharma1'
p1152
sg12
S'93'
p1153
sg14
V\u0e3f23.57
p1154
sg16
S'Alpha Pharma InduJect 10ml'
p1155
sg18
S'UK'
p1156
sa(dp1157
g10
S'pharma1'
p1158
sg12
S'93'
p1159
sg14
V\u0e3f25.38
p1160
sg16
S'Alpha Pharma Boldebolin 10ml'
p1161
sg18
S'UK'
p1162
sa(dp1163
g10
S'brownbud'
p1164
sg12
S'84'
p1165
sg14
V\u0e3f26.73
p1166
sg16
S'PAROTIN TAB PAROXETINE 40MG 10'
p1167
sg18
S'India'
p1168
sa(dp1169
g10
S'brownbud'
p1170
sg12
S'84'
p1171
sg14
V\u0e3f23.10
p1172
sg16
S'PAROTIN TAB PAROXETINE 30MG 10'
p1173
sg18
S'India'
p1174
sa(dp1175
g10
S'brownbud'
p1176
sg12
S'84'
p1177
sg14
V\u0e3f8.25
p1178
sg16
S'AZEE TAB AZITHROMYCIN 500MG  3'
p1179
sg18
S'India'
p1180
sa(dp1181
g10
S'brownbud'
p1182
sg12
S'84'
p1183
sg14
V\u0e3f8.91
p1184
sg16
S'FELIZ-S TAB ESCITALOPRAM 10MG 10'
p1185
sg18
S'India'
p1186
sa(dp1187
g10
S'brownbud'
p1188
sg12
S'84'
p1189
sg14
V\u0e3f34.65
p1190
sg16
S'AUGMENTIN TAB AMOXYCILLIN 250MG, CLAVULANIC ACID 1'
p1191
sg18
S'India'
p1192
sa(dp1193
g10
S'brownbud'
p1194
sg12
S'84'
p1195
sg14
V\u0e3f8.25
p1196
sg16
S'AZEE TAB AZITHROMYCIN 250MG  6'
p1197
sg18
S'India'
p1198
sa(dp1199
g10
S'brownbud'
p1200
sg12
S'84'
p1201
sg14
V\u0e3f9.57
p1202
sg16
S'ZIPDEP TAB MITRAZAPINE 15MG 10'
p1203
sg18
S'India'
p1204
sa(dp1205
g10
S'brownbud'
p1206
sg12
S'84'
p1207
sg14
V\u0e3f1.98
p1208
sg16
S'AZEE TAB DT AZITHROMYCIN 100MG  3'
p1209
sg18
S'India'
p1210
sa(dp1211
g10
S'brownbud'
p1212
sg12
S'84'
p1213
sg14
V\u0e3f16.83
p1214
sg16
S'FELIZ-S TAB ESCITALOPRAM 20MG 10'
p1215
sg18
S'India'
p1216
sa(dp1217
g10
S'brownbud'
p1218
sg12
S'84'
p1219
sg14
V\u0e3f7.92
p1220
sg16
S'CIPLOX TAB CIPROFLOXACIN 250MG 10'
p1221
sg18
S'India'
p1222
sa(dp1223
g10
S'brownbud'
p1224
sg12
S'84'
p1225
sg14
V\u0e3f26.73
p1226
sg16
S'FLUVOXIN TAB FLUVOXAMINE 100MG 10'
p1227
sg18
S'India'
p1228
sa(dp1229
g10
S'brownbud'
p1230
sg12
S'84'
p1231
sg14
V\u0e3f22.11
p1232
sg16
S'ZIPDEP TAB MITRAZAPINE 30MG 10'
p1233
sg18
S'India'
p1234
sa(dp1235
g10
S'brownbud'
p1236
sg12
S'84'
p1237
sg14
V\u0e3f14.85
p1238
sg16
S'FLUVOXIN TAB FLUVOXAMINE 50MG 10'
p1239
sg18
S'India'
p1240
sa(dp1241
g10
S'brownbud'
p1242
sg12
S'84'
p1243
sg14
V\u0e3f2.64
p1244
sg16
S'ATARAX TAB HYDROXYZINE 10MG X 15'
p1245
sg18
S'India'
p1246
sa(dp1247
g10
S'brownbud'
p1248
sg12
S'84'
p1249
sg14
V\u0e3f3.96
p1250
sg16
S'ZOSERT TAB SERTRALINE HCL 25MG 10'
p1251
sg18
S'India'
p1252
sa(dp1253
g10
S'brownbud'
p1254
sg12
S'84'
p1255
sg14
V\u0e3f3.30
p1256
sg16
S'DIAVISTA TAB PIOGLITAZONE 15MG 10'
p1257
sg18
S'India'
p1258
sa(dp1259
g10
S'brownbud'
p1260
sg12
S'84'
p1261
sg14
V\u0e3f66.01
p1262
sg16
S'ZYBAN TAB BUPROPION HCL 150MG 10'
p1263
sg18
S'India'
p1264
sa(dp1265
g10
S'brownbud'
p1266
sg12
S'84'
p1267
sg14
V\u0e3f10.56
p1268
sg16
S'ZOSERT TAB SERTRALINE HCL 100MG 10'
p1269
sg18
S'India'
p1270
sa(dp1271
g10
S'brownbud'
p1272
sg12
S'84'
p1273
sg14
V\u0e3f6.27
p1274
sg16
S'DIAVISTA TAB PIOGLITAZONE 30MG 10'
p1275
sg18
S'India'
p1276
sa(dp1277
g10
S'brownbud'
p1278
sg12
S'84'
p1279
sg14
V\u0e3f2.97
p1280
sg16
S'DIBETA SR TAB METFORMIN 500MG 10'
p1281
sg18
S'India'
p1282
sa(dp1283
g10
S'peaceandlove'
p1284
sg12
S'99'
p1285
sg14
V\u0e3f4.95
p1286
sg16
S'Generic Viagra (MIAOGE) 500mg x 4'
p1287
sg18
S'undeclared'
p1288
sa(dp1289
g10
S'brownbud'
p1290
sg12
S'84'
p1291
sg14
V\u0e3f6.27
p1292
sg16
S'ZOSERT TAB SERTRALINE HCL 50MG 10'
p1293
sg18
S'India'
p1294
sa(dp1295
g10
S'brownbud'
p1296
sg12
S'84'
p1297
sg14
V\u0e3f4.95
p1298
sg16
S'FEXOFENADINE 30MG X 10'
p1299
sg18
S'India'
p1300
sa(dp1301
g10
S'brownbud'
p1302
sg12
S'84'
p1303
sg14
V\u0e3f15.18
p1304
sg16
S'FEXOFENADINE 120MG X 10'
p1305
sg18
S'India'
p1306
sa(dp1307
g10
S'brownbud'
p1308
sg12
S'84'
p1309
sg14
V\u0e3f18.48
p1310
sg16
S'FEXOFENADINE 180MG X 10'
p1311
sg18
S'India'
p1312
sa(dp1313
g10
S'brownbud'
p1314
sg12
S'84'
p1315
sg14
V\u0e3f5.28
p1316
sg16
S'AZEE-1000 TAB AZITHROMYCIN 1000MG 1'
p1317
sg18
S'India'
p1318
sa(dp1319
g10
S'brownbud'
p1320
sg12
S'84'
p1321
sg14
V\u0e3f1.98
p1322
sg16
S'VALIUM TAB DIAZEPAM 2MG 10'
p1323
sg18
S'India'
p1324
sa(dp1325
g10
S'brownbud'
p1326
sg12
S'84'
p1327
sg14
V\u0e3f5.28
p1328
sg16
S'DALIUM TAB VENLAFAXINE 25MG 10'
p1329
sg18
S'India'
p1330
sa(dp1331
g10
S'brownbud'
p1332
sg12
S'84'
p1333
sg14
V\u0e3f2.64
p1334
sg16
S'CLONOTRIL TAB CLONAZEPAM 0.5MG 10'
p1335
sg18
S'India'
p1336
sa(dp1337
g10
S'brownbud'
p1338
sg12
S'84'
p1339
sg14
V\u0e3f19.80
p1340
sg16
S'ACIVIR DT TAB ACYCLOVIR 800MG  5'
p1341
sg18
S'India'
p1342
sa(dp1343
g10
S'brownbud'
p1344
sg12
S'84'
p1345
sg14
V\u0e3f11.55
p1346
sg16
S'ACIVIR DT TAB ACYCLOVIR 400MG 5'
p1347
sg18
S'India'
p1348
sa(dp1349
g10
S'brownbud'
p1350
sg12
S'84'
p1351
sg14
V\u0e3f14.52
p1352
sg16
S'HERPEX TAB ACYCLOVIR 200MG 10'
p1353
sg18
S'India'
p1354
sa(dp1355
g10
S'PaythePiper'
p1356
sg12
S'99'
p1357
sg14
V\u0e3f9.10
p1358
sg16
S' Cialis "Black" 800mg x 7. HUGE Sale! $4 each'
p1359
sg18
S'United Kingdom'
p1360
sa(dp1361
g10
S'brownbud'
p1362
sg12
S'84'
p1363
sg14
V\u0e3f11.88
p1364
sg16
S'ACIVIR DT TAB ACYCLOVIR 200MG 10'
p1365
sg18
S'India'
p1366
sa(dp1367
g10
S'brownbud'
p1368
sg12
S'84'
p1369
sg14
V\u0e3f18.15
p1370
sg16
S'PAROTIN-CR TAB PAROXETINE 25MG 10'
p1371
sg18
S'India'
p1372
sa(dp1373
g10
S'auto43'
p1374
sg12
S'99'
p1375
sg14
V\u0e3f19.86
p1376
sg16
S'EMS Shipping to Canada!'
p1377
sg18
S'USA'
p1378
sa(dp1379
g10
S'auto43'
p1380
sg12
S'99'
p1381
sg14
V\u0e3f11.53
p1382
sg16
S'Prazosin HCL 1MG x 120   -  Pfizer '
p1383
sg18
S'USA'
p1384
sa(dp1385
g10
S'pharma1'
p1386
sg12
S'93'
p1387
sg14
V\u0e3f23.57
p1388
sg16
S'Alpha Pharma Parabolin 76.5mg'
p1389
sg18
S'UK'
p1390
sa(dp1391
g10
S'pharma1'
p1392
sg12
S'93'
p1393
sg14
V\u0e3f23.56
p1394
sg16
S'Alpha Pharma Testobolin (Test Enanthate)'
p1395
sg18
S'UK'
p1396
sa(dp1397
g10
S'witcher'
p1398
sg12
S'86'
p1399
sg14
V\u0e3f30.83
p1400
sg16
S'Testosterone Propionate, 100mg/ml, 10 ml vial'
p1401
sg18
S'UK'
p1402
sa(dp1403
g10
S'Redenbacher'
p1404
sg12
S'97'
p1405
sg14
V\u0e3f2.42
p1406
sg16
S'Melatonin 30mg -  Sublingual Sleep Aid '
p1407
sg18
S'North America'
p1408
sa(dp1409
g10
S'Redenbacher'
p1410
sg12
S'97'
p1411
sg14
V\u0e3f1.87
p1412
sg16
S'MELATONIN 30MG (6 x 5mg) '
p1413
sg18
S'North America'
p1414
sa(dp1415
g10
S'badboy97'
p1416
sg12
g58
sg14
V\u0e3f12.27
p1417
sg16
S'1 Carton Premium Quality Cigarettes'
p1418
sg18
S'United States of America'
p1419
sa(dp1420
g10
S'generalm3sS'
p1421
sg12
S'100'
p1422
sg14
V\u0e3f102.26
p1423
sg16
S'100x Sildenafil (Viagra)'
p1424
sg18
S'UK'
p1425
sa(dp1426
g10
S'ficusfucker'
p1427
sg12
S'98'
p1428
sg14
V\u0e3f29.81
p1429
sg16
S'***WEIGHT LOSS*** Ma Huang (ephedrine) 30mg x 96 '
p1430
sg18
S'United States of America'
p1431
sa(dp1432
g10
S'PaythePiper'
p1433
sg12
S'99'
p1434
sg14
V\u0e3f8.95
p1435
sg16
S'4 x 100mg Brand Name Viagra'
p1436
sg18
S'United States of America'
p1437
sa(dp1438
g10
S'Avon'
p1439
sg12
S'95'
p1440
sg14
V\u0e3f2.73
p1441
sg16
S'10 piece Blister Pack - 150 mg Zyban (Bupropion)'
p1442
sg18
S'Worldwide'
p1443
sa(dp1444
g10
S'luxxia'
p1445
sg12
S'100'
p1446
sg14
V\u0e3f2.88
p1447
sg16
S'4 x 60mg Phenobarbital (a Barbiturate)'
p1448
sg18
S'United States of America'
p1449
sa(dp1450
g10
S'pharma1'
p1451
sg12
S'93'
p1452
sg14
V\u0e3f9.42
p1453
sg16
S'Sustanon 250 Pharma Grade Amps'
p1454
sg18
S'UK'
p1455
sa(dp1456
g10
S'pharma1'
p1457
sg12
S'93'
p1458
sg14
V\u0e3f24.75
p1459
sg16
S'Pro Chem Dianabol'
p1460
sg18
S'UK'
p1461
sa(dp1462
g10
S'pharma1'
p1463
sg12
S'93'
p1464
sg14
V\u0e3f9.42
p1465
sg16
S'Nandrolone Deca Injection'
p1466
sg18
S'UK'
p1467
sa(dp1468
g10
S'pharma1'
p1469
sg12
S'93'
p1470
sg14
V\u0e3f8.97
p1471
sg16
S'Testaviron 250 Pharma Grade Amp'
p1472
sg18
S'UK'
p1473
sa(dp1474
g10
S'pharma1'
p1475
sg12
S'93'
p1476
sg14
V\u0e3f9.90
p1477
sg16
S'HCG 5,000 IU GENERIC'
p1478
sg18
S'UK'
p1479
sa(dp1480
g10
S'TheUsualSuspect'
p1481
sg12
S'100'
p1482
sg14
V\u0e3f4.95
p1483
sg16
S'Buspirone HCL 10mg M B2 - 70 Tabs Buspar'
p1484
sg18
S'United States of America'
p1485
sa(dp1486
g10
S'TheUsualSuspect'
p1487
sg12
S'100'
p1488
sg14
V\u0e3f3.30
p1489
sg16
S'Trazodone 50mg Tablets V 61 60 - 15 Tablets Total'
p1490
sg18
S'United States of America'
p1491
sa(dp1492
g10
S'etizolam'
p1493
sg12
S'98'
p1494
sg14
V\u0e3f8.58
p1495
sg16
S'Ten (10) x cyclobenzaprine 15mg Flexeril XR'
p1496
sg18
S'United States of America'
p1497
sa(dp1498
g10
S'auris'
p1499
sg12
S'100'
p1500
sg14
V\u0e3f17.80
p1501
sg16
S'10 x 10 x 5 mg pack of Buspiron buspirone tablets'
p1502
sg18
S'FINLAND, EU'
p1503
sa(dp1504
g10
S'pharma1'
p1505
sg12
S'93'
p1506
sg14
V\u0e3f22.91
p1507
sg16
S'Aromasin 25mg'
p1508
sg18
S'UK'
p1509
sa(dp1510
g10
S'generalm3sS'
p1511
sg12
S'100'
p1512
sg14
V\u0e3f27.65
p1513
sg16
S'20x 100mg Sildenafil'
p1514
sg18
S'United Kingdom'
p1515
sa(dp1516
g10
S'generalm3sS'
p1517
sg12
S'100'
p1518
sg14
V\u0e3f54.98
p1519
sg16
S'50x 100mg Sildenafil'
p1520
sg18
S'United Kingdom'
p1521
sa(dp1522
g10
S'Redenbacher'
p1523
sg12
S'97'
p1524
sg14
V\u0e3f9.75
p1525
sg16
S'Diclofenac Sodium  75mg x 10 Capsules'
p1526
sg18
S'North America'
p1527
sa(dp1528
g10
S'pharma1'
p1529
sg12
S'93'
p1530
sg14
V\u0e3f8.91
p1531
sg16
S'Clomid 50mg'
p1532
sg18
S'UK'
p1533
sa(dp1534
g10
S'davidd'
p1535
sg12
S'99'
p1536
sg14
V\u0e3f4.65
p1537
sg16
S'10 x 10mg Reglan (Metoclopramide) tablets'
p1538
sg18
S'United States of America'
p1539
sa(dp1540
g10
S'pharma1'
p1541
sg12
S'93'
p1542
sg14
V\u0e3f24.92
p1543
sg16
S'DNP 200mg'
p1544
sg18
S'UK'
p1545
sa(dp1546
g10
S'pharma1'
p1547
sg12
S'93'
p1548
sg14
V\u0e3f29.70
p1549
sg16
S'Winstrol 50mg (Alpha Pharma)'
p1550
sg18
S'UK'
p1551
sa(dp1552
g10
S'luxxia'
p1553
sg12
S'100'
p1554
sg14
V\u0e3f1.13
p1555
sg16
S'30 Damiana Extract 5:1 Capsules (Legal High Herb)'
p1556
sg18
S'United States of America'
p1557
sa(dp1558
g10
S'pharma1'
p1559
sg12
S'93'
p1560
sg14
V\u0e3f16.18
p1561
sg16
S'Clenbeuterol 40mcg (Alpha Pharma)'
p1562
sg18
S'UK'
p1563
sa(dp1564
g10
S'swch'
p1565
sg12
S'94'
p1566
sg14
V\u0e3f3.94
p1567
sg16
S'1 Cigar CHURCHILL (17,5cm x 1.8cm)'
p1568
sg18
S'Switzerland'
p1569
sa(dp1570
g10
S'witcher'
p1571
sg12
S'86'
p1572
sg14
V\u0e3f20.82
p1573
sg16
S'Clenbuterol 40mg/tab 100'
p1574
sg18
S'UK'
p1575
sa(dp1576
g10
S'auto43'
p1577
sg12
S'99'
p1578
sg14
V\u0e3f16.01
p1579
sg16
S'Decaject 200 (Nandrolone Decanoate) 10ML'
p1580
sg18
S'USA'
p1581
sa(dp1582
g10
S'witcher'
p1583
sg12
S'86'
p1584
sg14
V\u0e3f32.63
p1585
sg16
S'Testosterone Enanthate 300mg/ml, 10 ml vial'
p1586
sg18
S'UK'
p1587
sa(dp1588
g10
S'Dopeboy'
p1589
sg12
S'100'
p1590
sg14
V\u0e3f12.32
p1591
sg16
S'GHB Solid chunks 10 grams'
p1592
sg18
S'Canada'
p1593
sa(dp1594
g10
S'auto43'
p1595
sg12
S'99'
p1596
sg14
V\u0e3f13.82
p1597
sg16
S'Clenbuterol (30ML)'
p1598
sg18
S'US'
p1599
sa(dp1600
g10
S'gambit'
p1601
sg12
g58
sg14
V\u0e3f30.35
p1602
sg16
S'250ml bottle of 99,98% Gamme-Butyrolactone (GBL)'
p1603
sg18
S'The Netherlands'
p1604
sa(dp1605
g10
S'streetpharmacy'
p1606
sg12
S'99'
p1607
sg14
V\u0e3f6.12
p1608
sg16
S'Tizanidin TEVA 6mg - 20 Pills'
p1609
sg18
S'undeclared'
p1610
sa(dp1611
g10
S'auto43'
p1612
sg12
S'99'
p1613
sg14
V\u0e3f16.55
p1614
sg16
S'4 x 20MG Original Lily Cialis'
p1615
sg18
S'USA'
p1616
sa(dp1617
g10
S'MrDdroMcGillacutty'
p1618
sg12
S'100'
p1619
sg14
V\u0e3f5.27
p1620
sg16
S'5 x Citalopram 20mg (generic Celexa) tablets'
p1621
sg18
S'United States of America'
p1622
sa(dp1623
g10
S'auto43'
p1624
sg12
S'99'
p1625
sg14
V\u0e3f51.06
p1626
sg16
S'100 x 50mg D-bol Tabs (BD)'
p1627
sg18
S'USA'
p1628
sa(dp1629
g10
S'auto43'
p1630
sg12
S'99'
p1631
sg14
V\u0e3f14.51
p1632
sg16
S'Boldoject (Boldenone Undecylenate) 10ML'
p1633
sg18
S'USA'
p1634
sa(dp1635
g10
S'pharma1'
p1636
sg12
S'93'
p1637
sg14
V\u0e3f17.53
p1638
sg16
S'Arimidex 1mg x 14 tabs'
p1639
sg18
S'UK'
p1640
sa(dp1641
g10
S'auto43'
p1642
sg12
S'99'
p1643
sg14
V\u0e3f11.15
p1644
sg16
S'100MG/ML  Max Pro Injectable Dbol (10ML)'
p1645
sg18
S'USA'
p1646
sa(dp1647
g10
S'auto43'
p1648
sg12
S'99'
p1649
sg14
V\u0e3f17.65
p1650
sg16
S'Stanoject Stanozolol (10ML)'
p1651
sg18
S'USA'
p1652
sa(dp1653
g10
S'crucialbl'
p1654
sg12
g58
sg14
V\u0e3f19.46
p1655
sg16
S'Cialis (non-generic) 5x10mg pills'
p1656
sg18
S'United States of America'
p1657
sa(dp1658
g10
S'collapses'
p1659
sg12
S'100'
p1660
sg14
V\u0e3f20.98
p1661
sg16
S'3 boxes (12 pills) Generic Viagra'
p1662
sg18
S'US'
p1663
sa(dp1664
g10
S'collapses'
p1665
sg12
S'100'
p1666
sg14
V\u0e3f125.39
p1667
sg16
S'Case of Generic Viagra (20 packs of 4 pills ea.)'
p1668
sg18
S'US'
p1669
sa(dp1670
g10
S'brownbud'
p1671
sg12
S'84'
p1672
sg14
V\u0e3f2.97
p1673
sg16
S'AMOXIL CAP AMOXYCILLIN 250MG 10'
p1674
sg18
S'India'
p1675
sa(dp1676
g10
S'Redenbacher'
p1677
sg12
S'97'
p1678
sg14
V\u0e3f3.16
p1679
sg16
S'Ephedrine HCL 304mg (38 x 8mg) - Cheapest Solution'
p1680
sg18
S'Canada'
p1681
sa(dp1682
g10
S'ChicagoDrug'
p1683
sg12
S'100'
p1684
sg14
V\u0e3f0.66
p1685
sg16
S'Flexeril 10mg (cyclobenzaprine)'
p1686
sg18
S'United States of America'
p1687
sa(dp1688
g10
S'Synaptic'
p1689
sg12
S'97'
p1690
sg14
V\u0e3f7.73
p1691
sg16
S'100mg Lamictal (Lamotrigine) x 10'
p1692
sg18
S'United States of America'
p1693
sa(dp1694
g10
S'Synaptic'
p1695
sg12
S'97'
p1696
sg14
V\u0e3f3.91
p1697
sg16
S'100mg Lamictal (Lamotrigine) x 5'
p1698
sg18
S'United States of America'
p1699
sa(dp1700
g10
S'brownbud'
p1701
sg12
S'84'
p1702
sg14
V\u0e3f13.86
p1703
sg16
S'CIPLOX TAB CIPROFLOXACIN 500MG 10'
p1704
sg18
S'India'
p1705
sa(dp1706
g10
S'Synaptic'
p1707
sg12
S'97'
p1708
sg14
V\u0e3f0.98
p1709
sg16
S'100mg Lamictal (Lamotrigine) x 1'
p1710
sg18
S'United States of America'
p1711
sa(dp1712
g10
S'ChicagoDrug'
p1713
sg12
S'100'
p1714
sg14
V\u0e3f1.98
p1715
sg16
S'Ambien 10mg (Zolpidem'
p1716
sg18
S'United States of America'
p1717
sa(dp1718
g10
S'brownbud'
p1719
sg12
S'84'
p1720
sg14
V\u0e3f19.80
p1721
sg16
S'DORENT TAB DONEPEZIL 10MG  10'
p1722
sg18
S'India'
p1723
sa(dp1724
g10
S'brownbud'
p1725
sg12
S'84'
p1726
sg14
V\u0e3f5.94
p1727
sg16
S'SERENATA TAB SERTRALINE HCL 50MG 10'
p1728
sg18
S'India'
p1729
sa(dp1730
g10
S'brownbud'
p1731
sg12
S'84'
p1732
sg14
V\u0e3f13.20
p1733
sg16
S'DORENT TAB DONEPEZIL 5MG  10'
p1734
sg18
S'India'
p1735
sa(dp1736
g10
S'brownbud'
p1737
sg12
S'84'
p1738
sg14
V\u0e3f13.53
p1739
sg16
S'PAROTIN-CR TAB PAROXETINE 12.5MG 10'
p1740
sg18
S'India'
p1741
sa(dp1742
g10
S'brownbud'
p1743
sg12
S'84'
p1744
sg14
V\u0e3f21.45
p1745
sg16
S'MONTAIR LC TAB MONTELUKAST 10MG, LEVOCETIRIZINE 5M'
p1746
sg18
S'India'
p1747
sa(dp1748
g10
S'brownbud'
p1749
sg12
S'84'
p1750
sg14
V\u0e3f11.55
p1751
sg16
S'MONTAIR TAB MONTELUKAST 5MG X 10'
p1752
sg18
S'India'
p1753
sa(dp1754
g10
S'brownbud'
p1755
sg12
S'84'
p1756
sg14
V\u0e3f7.92
p1757
sg16
S'MONTAIR TAB MONTELUKAST 4MG X 10'
p1758
sg18
S'India'
p1759
sa(dp1760
g10
S'brownbud'
p1761
sg12
S'84'
p1762
sg14
V\u0e3f4.62
p1763
sg16
S'ATARAX TAB HYDROXYZINE 25MG x 15'
p1764
sg18
S'India'
p1765
sa(dp1766
g10
S'brownbud'
p1767
sg12
S'84'
p1768
sg14
V\u0e3f10.23
p1769
sg16
S'SERENATA TAB SERTRALINE HCL 100MG 10'
p1770
sg18
S'India'
p1771
sa(dp1772
g10
S'brownbud'
p1773
sg12
S'84'
p1774
sg14
V\u0e3f17.16
p1775
sg16
S'MONTAIR TAB MONTELUKAST 10MG  10'
p1776
sg18
S'India'
p1777
saaa(lp1778
(lp1779
S'Psychedelics'
p1780
aa(lp1781
(dp1782
g10
S'Mycelium Market'
p1783
sg12
S'98'
p1784
sg14
V\u0e3f13.21
p1785
sg16
S'14g Psilocybe Galindoi ATL#7 Sclerotia'
p1786
sg18
S'US'
p1787
sa(dp1788
g10
S'etizolam'
p1789
sg12
S'98'
p1790
sg14
V\u0e3f0.27
p1791
sg16
S'10mg 99% 5-methoxy-N,N-diallyltryptamine  5MeODALT'
p1792
sg18
S'US'
p1793
sa(dp1794
g10
S'walter'
p1795
sg12
S'100'
p1796
sg14
V\u0e3f10.27
p1797
sg16
S'Banisteriopsis Caapi Alkaloids 200 Mg'
p1798
sg18
S'EU'
p1799
sa(dp1800
g10
S'BAWSLY'
p1801
sg12
S'100'
p1802
sg14
V\u0e3f35.12
p1803
sg16
S'10x 120ug White-on-White tabs'
p1804
sg18
S'United States of America'
p1805
sa(dp1806
g10
S'BansheeBeat'
p1807
sg12
g58
sg14
V\u0e3f37.18
p1808
sg16
S'10x LSD Blotters 150ug'
p1809
sg18
S'Canada'
p1810
sa(dp1811
g10
S'walter'
p1812
sg12
S'100'
p1813
sg14
V\u0e3f29.51
p1814
sg16
S'Banisteriopsis Caapi Alkaloids 1000 Mg'
p1815
sg18
S'EU'
p1816
sa(dp1817
g10
S'BansheeBeat'
p1818
sg12
g58
sg14
V\u0e3f158.90
p1819
sg16
S'50x LSD Blotters 150ug'
p1820
sg18
S'Canada'
p1821
sa(dp1822
g10
S'etizolam'
p1823
sg12
S'98'
p1824
sg14
V\u0e3f4.95
p1825
sg16
S'10mg DOC 2,5-dimethoxy-4-chloroamphetamine HCL 99%'
p1826
sg18
S'US'
p1827
sa(dp1828
g10
S'jackrabbit31'
p1829
sg12
S'99'
p1830
sg14
V\u0e3f6.82
p1831
sg16
S'3.5 Grams-  B+ Mushrooms - High Grade! (Cubenesis)'
p1832
sg18
S'United States of America'
p1833
sa(dp1834
g10
S'ENBOOM'
p1835
sg12
S'100'
p1836
sg14
V\u0e3f21.46
p1837
sg16
S'25c-NBOMe 1mg Blotter x10'
p1838
sg18
S'United States of America'
p1839
sa(dp1840
g10
S'ENBOOM'
p1841
sg12
S'100'
p1842
sg14
V\u0e3f13.21
p1843
sg16
S'25c-NBOMe 1mg Blotter x5'
p1844
sg18
S'United States of America'
p1845
sa(dp1846
g10
S'walter'
p1847
sg12
S'100'
p1848
sg14
V\u0e3f17.24
p1849
sg16
S'DMT fumarate 500 Mg 99.5% Purity'
p1850
sg18
S'EU'
p1851
sa(dp1852
g10
S'davidd'
p1853
sg12
S'99'
p1854
sg14
V\u0e3f140.02
p1855
sg16
S'1 x 5g 98.9%+ Pure 2C-E (Super Strength)'
p1856
sg18
S'United States of America'
p1857
sa(dp1858
g10
S'UnnamedGrower'
p1859
sg12
g58
sg14
V\u0e3f18.16
p1860
sg16
S'5x WoW(White on White) Blotter 120ug'
p1861
sg18
S'Canada'
p1862
sa(dp1863
g10
S'etizolam'
p1864
sg12
S'98'
p1865
sg14
V\u0e3f36.65
p1866
sg16
S'1000mg 2C-I 2,5-dimethoxy-4-iodophenethylamine 99%'
p1867
sg18
S'US'
p1868
sa(dp1869
g10
S'freedompeople'
p1870
sg12
S'97'
p1871
sg14
V\u0e3f240.83
p1872
sg16
S'100 LSD Stamps  - 150 ug Bulk Special'
p1873
sg18
S'Netherlands'
p1874
sa(dp1875
g10
S'gambit'
p1876
sg12
g58
sg14
V\u0e3f10.41
p1877
sg16
S'Hawaiien Baby Woodrose seeds (argyreia nervosa)'
p1878
sg18
S'The Netherlands'
p1879
sa(dp1880
g10
S'PsiloTRON'
p1881
sg12
S'100'
p1882
sg14
V\u0e3f19.81
p1883
sg16
S'T. pachanoi "San Pedro Cactus" '
p1884
sg18
S'United States of America'
p1885
sa(dp1886
g10
S'Rocker'
p1887
sg12
S'100'
p1888
sg14
V\u0e3f166.50
p1889
sg16
S'4 Oz. (1/4 Lb) Psilocybe Cubensis Mushrooms'
p1890
sg18
S'United States of America'
p1891
sa(dp1892
g10
S'joy'
p1893
sg12
S'100'
p1894
sg14
V\u0e3f46.84
p1895
sg16
V10 pieces of 150ug Krishna \u2600
p1896
sg18
S'undeclared'
p1897
sa(dp1898
g10
S'Missit'
p1899
sg12
S'83'
p1900
sg14
V\u0e3f13.84
p1901
sg16
S'25i-NBOME 500ug Blotter x10'
p1902
sg18
S'US'
p1903
sa(dp1904
g10
S'Mycelium Market'
p1905
sg12
S'98'
p1906
sg14
V\u0e3f39.63
p1907
sg16
S'2oz Psilocybe Galindoi ATL#7 Sclerotia'
p1908
sg18
S'US'
p1909
sa(dp1910
g10
S'Mycelium Market'
p1911
sg12
S'98'
p1912
sg14
V\u0e3f26.42
p1913
sg16
S'1oz Psilocybe Galindoi ATL#7 Sclerotia'
p1914
sg18
S'US'
p1915
sa(dp1916
g10
S'TripleBeam'
p1917
sg12
S'100'
p1918
sg14
V\u0e3f6.58
p1919
sg16
S'25c-Nbome Blotters 800ug AUS'
p1920
sg18
S'AUS'
p1921
sa(dp1922
g10
S'Missit'
p1923
sg12
S'83'
p1924
sg14
V\u0e3f33.02
p1925
sg16
S'1g 2C-I'
p1926
sg18
S'US'
p1927
sa(dp1928
g10
S'BockZu'
p1929
sg12
g58
sg14
V\u0e3f5.61
p1930
sg16
S'Koh Samui Sporeprint'
p1931
sg18
S'undeclared'
p1932
sa(dp1933
g10
S'Mycelium Market'
p1934
sg12
S'98'
p1935
sg14
V\u0e3f72.65
p1936
sg16
S'4oz Psilocybe Galindoi ATL#7 Sclerotia'
p1937
sg18
S'US'
p1938
sa(dp1939
g10
S'etizolam'
p1940
sg12
S'98'
p1941
sg14
V\u0e3f329.89
p1942
sg16
S'10mg DPT N,N-dipropyltryptamine HCl white powder'
p1943
sg18
S'US'
p1944
sa(dp1945
g10
S'elvis'
p1946
sg12
S'100'
p1947
sg14
V\u0e3f16.76
p1948
sg16
S'40x Salvia 1 gram'
p1949
sg18
S'United States of America'
p1950
sa(dp1951
g10
S'DiMiTriSpice'
p1952
sg12
S'85'
p1953
sg14
V\u0e3f48.07
p1954
sg16
S'Changa - DMT Enhanced Herb - 5 grams'
p1955
sg18
S'US'
p1956
sa(dp1957
g10
S'Anarcho47'
p1958
sg12
S'100'
p1959
sg14
V\u0e3f66.00
p1960
sg16
S'1 oz (28g) of BC Cyanescens Mushrooms'
p1961
sg18
S'Canada'
p1962
sa(dp1963
g10
S'Mitanox'
p1964
sg12
S'98'
p1965
sg14
V\u0e3f3.30
p1966
sg16
S'Dancing Bears LSD 130mics [1 tab]'
p1967
sg18
S'Netherlands'
p1968
sa(dp1969
g10
S'dubdubbawobwob'
p1970
sg12
S'100'
p1971
sg14
V\u0e3f5.06
p1972
sg16
S'100mg 2C-C, 98.5% purity'
p1973
sg18
S'United States of America'
p1974
sa(dp1975
g10
S'BansheeBeat'
p1976
sg12
g58
sg14
V\u0e3f72.12
p1977
sg16
S'20x LSD Blotters 150ug'
p1978
sg18
S'Canada'
p1979
sa(dp1980
g10
S'BansheeBeat'
p1981
sg12
g58
sg14
V\u0e3f244.01
p1982
sg16
S'100x LSD Blotters 150ug'
p1983
sg18
S'Canada'
p1984
sa(dp1985
g10
S'ENBOOM'
p1986
sg12
S'100'
p1987
sg14
V\u0e3f8.26
p1988
sg16
S'100mg 2c-e'
p1989
sg18
S'United States of America'
p1990
sa(dp1991
g10
S'amush'
p1992
sg12
S'100'
p1993
sg14
V\u0e3f12.55
p1994
sg16
S'3g Dried Z-Strain (Cubensis)'
p1995
sg18
S'Norway'
p1996
sa(dp1997
g10
S'etizolam'
p1998
sg12
S'98'
p1999
sg14
V\u0e3f0.89
p2000
sg16
S'10mg 2C-P 2,5-dimethoxy-4-propylphenethylamine HCl'
p2001
sg18
S'US'
p2002
sa(dp2003
g10
S'walter'
p2004
sg12
S'100'
p2005
sg14
V\u0e3f10.27
p2006
sg16
S'DMT fumarate 200 Mg 99.5% Purity'
p2007
sg18
S'EU'
p2008
sa(dp2009
g10
S'etizolam'
p2010
sg12
S'98'
p2011
sg14
V\u0e3f0.51
p2012
sg16
S'10mg 2C-C 2,5-dimethoxy-4-chlorophenethylamine'
p2013
sg18
S'US'
p2014
sa(dp2015
g10
S'namaste'
p2016
sg12
S'93'
p2017
sg14
V\u0e3f3.54
p2018
sg16
S'1 cap  2C-B (15mg)'
p2019
sg18
S'undeclared'
p2020
sa(dp2021
g10
S'aus2aus'
p2022
sg12
S'100'
p2023
sg14
V\u0e3f19.81
p2024
sg16
S'20mg 25C-NBOMe HCl'
p2025
sg18
S'Australia'
p2026
sa(dp2027
g10
S'Paperchasing'
p2028
sg12
S'99'
p2029
sg14
V\u0e3f10.32
p2030
sg16
S'2c-i  20mg capsules x 5'
p2031
sg18
S'United States of America'
p2032
sa(dp2033
g10
S'ENBOOM'
p2034
sg12
S'100'
p2035
sg14
V\u0e3f19.81
p2036
sg16
S'25x 1mg DOC Blotter'
p2037
sg18
S'United States of America'
p2038
sa(dp2039
g10
S'Ivory'
p2040
sg12
S'98'
p2041
sg14
V\u0e3f25.22
p2042
sg16
S'10 x 12mg 2C-B (Hydrochloride Salt) Caps'
p2043
sg18
S'United Kingdom'
p2044
sa(dp2045
g10
S'Sunshine'
p2046
sg12
S'97'
p2047
sg14
V\u0e3f11.35
p2048
sg16
S'3gr dried A++ Psilocybin Cubensis Mushrooms'
p2049
sg18
S'EU, Netherlands'
p2050
sa(dp2051
g10
S'edgarnumbers'
p2052
sg12
S'99'
p2053
sg14
V\u0e3f28.41
p2054
sg16
S'Psilocybe cubensis "Cambodian" - 1/2 oz'
p2055
sg18
S'USA'
p2056
sa(dp2057
g10
S'Sunshine'
p2058
sg12
S'97'
p2059
sg14
V\u0e3f65.44
p2060
sg16
S'1000mg of 2C-B'
p2061
sg18
S'EU, Netherlands'
p2062
sa(dp2063
g10
S'ENBOOM'
p2064
sg12
S'100'
p2065
sg14
V\u0e3f36.32
p2066
sg16
S'25i-NBOMe 750ug Blotter x25'
p2067
sg18
S'United States of America'
p2068
sa(dp2069
g10
S'joy'
p2070
sg12
S'100'
p2071
sg14
V\u0e3f26.61
p2072
sg16
V5 pieces of 150ug Krishna \u2600
p2073
sg18
S'undeclared'
p2074
sa(dp2075
g10
S'oso'
p2076
sg12
S'100'
p2077
sg14
V\u0e3f50.36
p2078
sg16
S'<-28 gram Thai Amazonian Cubensis'
p2079
sg18
S'US'
p2080
sa(dp2081
g10
S'edgarnumbers'
p2082
sg12
S'99'
p2083
sg14
V\u0e3f52.36
p2084
sg16
S'Psilocybe cubensis "Cambodian" - 1 oz'
p2085
sg18
S'USA'
p2086
sa(dp2087
g10
S'ENBOOM'
p2088
sg12
S'100'
p2089
sg14
V\u0e3f8.26
p2090
sg16
S'100mg 2c-c'
p2091
sg18
S'United States of America'
p2092
sa(dp2093
g10
S'Sel4h'
p2094
sg12
S'93'
p2095
sg14
V\u0e3f37.97
p2096
sg16
S'MESCALINE ACETATE 90%+  ( 100% ORGANIC)'
p2097
sg18
S'North America'
p2098
sa(dp2099
g10
S'LysanderSpooner'
p2100
sg12
S'99'
p2101
sg14
V\u0e3f38.87
p2102
sg16
V10 x 150g LSD Blotter. "Teddy Bear's Picnic"
p2103
sg18
S'United Kingdom'
p2104
sa(dp2105
g10
S'ENBOOM'
p2106
sg12
S'100'
p2107
sg14
V\u0e3f69.35
p2108
sg16
S'25i-NBOMe 750ug Blotter x50'
p2109
sg18
S'United States of America'
p2110
sa(dp2111
g10
S'walter'
p2112
sg12
S'100'
p2113
sg14
V\u0e3f17.24
p2114
sg16
S'Banisteriopsis Caapi Alkaloids 500 Mg'
p2115
sg18
S'EU'
p2116
sa(dp2117
g10
S'Sunshine'
p2118
sg12
S'97'
p2119
sg14
V\u0e3f33.81
p2120
sg16
S'Psilocybin Cubensis Mushrooms "dried" 10gr'
p2121
sg18
S'EU, Netherlands'
p2122
sa(dp2123
g10
S'freedompeople'
p2124
sg12
S'97'
p2125
sg14
V\u0e3f86.18
p2126
sg16
S'25 LSD Stamps - 150 ug'
p2127
sg18
S'Netherlands'
p2128
sa(dp2129
g10
S'anon1'
p2130
sg12
S'100'
p2131
sg14
V\u0e3f21.05
p2132
sg16
S'2C-B 15mg Caps x 10'
p2133
sg18
S'United States of America'
p2134
sa(dp2135
g10
S'Diogenes'
p2136
sg12
g58
sg14
V\u0e3f7.60
p2137
sg16
S'Flying Keys - 3 tabs (shipping included)'
p2138
sg18
S'undeclared'
p2139
sa(dp2140
g10
S'TripleBeam'
p2141
sg12
S'100'
p2142
sg14
V\u0e3f21.08
p2143
sg16
S'100mg Pure 2c-c'
p2144
sg18
S'AUS'
p2145
sa(dp2146
g10
S'ENBOOM'
p2147
sg12
S'100'
p2148
sg14
V\u0e3f33.02
p2149
sg16
S'1g 2c-e'
p2150
sg18
S'United States of America'
p2151
sa(dp2152
g10
S'DiMiTriSpice'
p2153
sg12
S'85'
p2154
sg14
V\u0e3f11.70
p2155
sg16
S'Changa - DMT Enhanced Herb - 1 gram'
p2156
sg18
S'US'
p2157
sa(dp2158
g10
S'Anarcho47'
p2159
sg12
S'100'
p2160
sg14
V\u0e3f18.48
p2161
sg16
S'**Sample/Review - 1/4oz (7g) BC Cyanescens**'
p2162
sg18
S'Canada'
p2163
sa(dp2164
g10
S'edgarnumbers'
p2165
sg12
S'99'
p2166
sg14
V\u0e3f176.91
p2167
sg16
S'Psilocybe cubensis "Cambodian" - 4 oz'
p2168
sg18
S'USA'
p2169
sa(dp2170
g10
S'elvis'
p2171
sg12
S'100'
p2172
sg14
V\u0e3f20.26
p2173
sg16
S'1 gram Salvia 60x'
p2174
sg18
S'United States of America'
p2175
sa(dp2176
g10
S'Sel4h'
p2177
sg12
S'93'
p2178
sg14
V\u0e3f28.17
p2179
sg16
S'-NN- DMT YELLOW CLASSIC '
p2180
sg18
S'North America'
p2181
sa(dp2182
g10
S'Sel4h'
p2183
sg12
S'93'
p2184
sg14
V\u0e3f16.38
p2185
sg16
S'-NN- DMT YELLOW CLASSIC  (500mg)'
p2186
sg18
S'North America'
p2187
sa(dp2188
g10
S'Anarcho47'
p2189
sg12
S'100'
p2190
sg14
V\u0e3f34.99
p2191
sg16
S'**Review/Sample SALE - Dried B.C. Caps 1/2 oz'
p2192
sg18
S'Canada'
p2193
sa(dp2194
g10
S'bloomingcolor'
p2195
sg12
S'98'
p2196
sg14
V\u0e3f48.08
p2197
sg16
S'10x hits Avatar Blotter (180ug)'
p2198
sg18
S'United States of America'
p2199
sa(dp2200
g10
S'themunchies'
p2201
sg12
S'100'
p2202
sg14
V\u0e3f44.58
p2203
sg16
S'10 x 100ug Grateful Dead Fam White Fluff'
p2204
sg18
S'United States of America'
p2205
sa(dp2206
g10
S'davidd'
p2207
sg12
S'99'
p2208
sg14
V\u0e3f5.94
p2209
sg16
S'100mg 98%+ pure 2C-E'
p2210
sg18
S'United States of America'
p2211
sa(dp2212
g10
S'walter'
p2213
sg12
S'100'
p2214
sg14
V\u0e3f17.24
p2215
sg16
S'DMT freebase 500 Mg 99.5% Purity'
p2216
sg18
S'EU'
p2217
sa(dp2218
g10
S'streetpharmacy'
p2219
sg12
S'99'
p2220
sg14
V\u0e3f3.98
p2221
sg16
S'1x Albert Hofmann "The Original" - Blotters'
p2222
sg18
S'Germany'
p2223
sa(dp2224
g10
S'freedompeople'
p2225
sg12
S'97'
p2226
sg14
V\u0e3f20.96
p2227
sg16
S'5 LSD Stamps - 150 ug'
p2228
sg18
S'Netherlands'
p2229
sa(dp2230
g10
S'Rocker'
p2231
sg12
S'100'
p2232
sg14
V\u0e3f28.65
p2233
sg16
S'1/2 Oz. (14g) Psilocybe Cubensis Mushrooms'
p2234
sg18
S'United States of America'
p2235
sa(dp2236
g10
S'Rocker'
p2237
sg12
S'100'
p2238
sg14
V\u0e3f50.70
p2239
sg16
S'1 Oz (28.3g) Psilocybe Cubensis Mushrooms'
p2240
sg18
S'United States of America'
p2241
sa(dp2242
g10
S'walter'
p2243
sg12
S'100'
p2244
sg14
V\u0e3f29.51
p2245
sg16
S'DMT freebase 1000 Mg 99.5% Purity'
p2246
sg18
S'EU'
p2247
sa(dp2248
g10
S'Sunshine'
p2249
sg12
S'97'
p2250
sg14
V\u0e3f10.87
p2251
sg16
S'125mg of 2C-B'
p2252
sg18
S'EU, Netherlands'
p2253
sa(dp2254
g10
S'walter'
p2255
sg12
S'100'
p2256
sg14
V\u0e3f10.27
p2257
sg16
S'DMT freebase 200 Mg 99.5% Purity'
p2258
sg18
S'EU'
p2259
sa(dp2260
g10
S'elvis'
p2261
sg12
S'100'
p2262
sg14
V\u0e3f10.33
p2263
sg16
S'200mg DMT freebase'
p2264
sg18
S'United States of America'
p2265
sa(dp2266
g10
S'ENBOOM'
p2267
sg12
S'100'
p2268
sg14
V\u0e3f9.91
p2269
sg16
S'25i-NBOME 750ug x5'
p2270
sg18
S'United States of America'
p2271
sa(dp2272
g10
S'streetpharmacy'
p2273
sg12
S'99'
p2274
sg14
V\u0e3f18.58
p2275
sg16
S'5x Albert Hofmann "The Original" - Blotters'
p2276
sg18
S'Germany'
p2277
sa(dp2278
g10
S'LysanderSpooner'
p2279
sg12
S'99'
p2280
sg14
V\u0e3f11.22
p2281
sg16
V2 x 150g LSD Blotter. "Teddy Bear's Picnic"
p2282
sg18
S'United Kingdom'
p2283
sa(dp2284
g10
S'ENBOOM'
p2285
sg12
S'100'
p2286
sg14
V\u0e3f3.96
p2287
sg16
S'25i-NBOMe Sample '
p2288
sg18
S'undeclared'
p2289
sa(dp2290
g10
S'elvis'
p2291
sg12
S'100'
p2292
sg14
V\u0e3f16.97
p2293
sg16
S'1/2 Gram DMT'
p2294
sg18
S'United States of America'
p2295
sa(dp2296
g10
S'freedompeople'
p2297
sg12
S'97'
p2298
sg14
V\u0e3f40.11
p2299
sg16
S'10 LSD Stamps - 150 ug'
p2300
sg18
S'Netherlands'
p2301
sa(dp2302
g10
S'edgarnumbers'
p2303
sg12
S'99'
p2304
sg14
V\u0e3f8.73
p2305
sg16
S'Psilocybe cubensis "Cambodian" - 1/8 oz'
p2306
sg18
S'USA'
p2307
sa(dp2308
g10
S'streetpharmacy'
p2309
sg12
S'99'
p2310
sg14
V\u0e3f35.41
p2311
sg16
S'10x Albert Hofmann "The Original" - Blotters'
p2312
sg18
S'Germany'
p2313
sa(dp2314
g10
S'ENBOOM'
p2315
sg12
S'100'
p2316
sg14
V\u0e3f4.95
p2317
sg16
S'5x 1mg DOC Blotter'
p2318
sg18
S'United States of America'
p2319
sa(dp2320
g10
S'Sunshine'
p2321
sg12
S'97'
p2322
sg14
V\u0e3f20.56
p2323
sg16
S'250mg of 2C-B'
p2324
sg18
S'EU, Netherlands'
p2325
sa(dp2326
g10
S'LysanderSpooner'
p2327
sg12
S'99'
p2328
sg14
V\u0e3f20.33
p2329
sg16
V5 x 150g LSD Blotter. "Teddy Bear's Picnic"
p2330
sg18
S'United Kingdom'
p2331
sa(dp2332
g10
S'davidd'
p2333
sg12
S'99'
p2334
sg14
V\u0e3f2.33
p2335
sg16
S'1x 15mg 2C-E Pre-dissolved in Amber Vial'
p2336
sg18
S'United States of America'
p2337
sa(dp2338
g10
S'etizolam'
p2339
sg12
S'98'
p2340
sg14
V\u0e3f0.66
p2341
sg16
S'10mg 2C-I 2,5-dimethoxy-4-iodophenethylamine 99%'
p2342
sg18
S'US'
p2343
sa(dp2344
g10
S'ENBOOM'
p2345
sg12
S'100'
p2346
sg14
V\u0e3f18.49
p2347
sg16
S'25i-NBOMe 750ug Blotter x10'
p2348
sg18
S'United States of America'
p2349
sa(dp2350
g10
S'BashfulBetty'
p2351
sg12
S'100'
p2352
sg14
V\u0e3f7.60
p2353
sg16
S'3.5g Psilocybe Cubensis Mushrooms'
p2354
sg18
S'Canada'
p2355
sa(dp2356
g10
S'elvis'
p2357
sg12
S'100'
p2358
sg14
V\u0e3f28.36
p2359
sg16
S'1gram clean white DMT'
p2360
sg18
S'United States of America'
p2361
sa(dp2362
g10
S'Ivory'
p2363
sg12
S'98'
p2364
sg14
V\u0e3f15.58
p2365
sg16
S'2C-E 10 x 10mg Caps'
p2366
sg18
S'United Kingdom'
p2367
sa(dp2368
g10
S'ENBOOM'
p2369
sg12
S'100'
p2370
sg14
V\u0e3f8.92
p2371
sg16
S'10x 1mg DOC Blotter'
p2372
sg18
S'United States of America'
p2373
sa(dp2374
g10
S'elvis'
p2375
sg12
S'100'
p2376
sg14
V\u0e3f6.99
p2377
sg16
S'200mg Jungle DMT'
p2378
sg18
S'US'
p2379
sa(dp2380
g10
S'Ivory'
p2381
sg12
S'98'
p2382
sg14
V\u0e3f17.39
p2383
sg16
S'2C-I 10 x 15mg Caps'
p2384
sg18
S'United Kingdom'
p2385
sa(dp2386
g10
S'mantaray'
p2387
sg12
S'64'
p2388
sg14
V\u0e3f0.01
p2389
sg16
S'out of escrow liquid LSD vial'
p2390
sg18
S'USA'
p2391
sa(dp2392
g10
S'Sel4h'
p2393
sg12
S'93'
p2394
sg14
V\u0e3f28.95
p2395
sg16
S'-NN- DMT CRYSTAL CLEAR 90%+'
p2396
sg18
S'North America'
p2397
sa(dp2398
g10
S'walter'
p2399
sg12
S'100'
p2400
sg14
V\u0e3f29.51
p2401
sg16
S'DMT fumarate 1000 Mg 99.5% Purity'
p2402
sg18
S'EU'
p2403
sa(dp2404
g10
S'etizolam'
p2405
sg12
S'98'
p2406
sg14
V\u0e3f28.07
p2407
sg16
S'1000mg 2CE 2,5-dimethoxy-4-ethylphenethylamine 99%'
p2408
sg18
S'US'
p2409
sa(dp2410
g10
S'gambit'
p2411
sg12
g58
sg14
V\u0e3f11.56
p2412
sg16
V12gr Philosopher\u2019s Stone - Psilocybe Tampanensis
p2413
sg18
S'The Netherlands'
p2414
sa(dp2415
g10
S'cosmicwizard'
p2416
sg12
S'99'
p2417
sg14
V\u0e3f28.52
p2418
sg16
S'DMT shards crystal chunks '
p2419
sg18
S'US'
p2420
sa(dp2421
g10
S'streetpharmacy'
p2422
sg12
S'99'
p2423
sg14
V\u0e3f9.32
p2424
sg16
S'3x Albert Hofmann "The Original" - Blotters'
p2425
sg18
S'Germany'
p2426
sa(dp2427
g10
S'direwolf'
p2428
sg12
S'100'
p2429
sg14
V\u0e3f26.42
p2430
sg16
S'14 grams B+ cubensis +DMT combo pack'
p2431
sg18
S'undeclared'
p2432
sa(dp2433
g10
S'Paperchasing'
p2434
sg12
S'99'
p2435
sg14
V\u0e3f17.73
p2436
sg16
S'DOI - Pure White Powder - 20mg'
p2437
sg18
S'United States of America'
p2438
sa(dp2439
g10
S'Paperchasing'
p2440
sg12
S'99'
p2441
sg14
V\u0e3f20.90
p2442
sg16
S'DOC - Pure white powder - 20mg'
p2443
sg18
S'United States of America'
p2444
sa(dp2445
g10
S'Missit'
p2446
sg12
S'83'
p2447
sg14
V\u0e3f99.07
p2448
sg16
S'1g 25I-NBOMe'
p2449
sg18
S'Worldwide'
p2450
sa(dp2451
g10
S'Missit'
p2452
sg12
S'83'
p2453
sg14
V\u0e3f10.57
p2454
sg16
S'25i-NBOMe 1mg Blotter x4'
p2455
sg18
S'US'
p2456
sa(dp2457
g10
S'namaste'
p2458
sg12
S'93'
p2459
sg14
V\u0e3f9.17
p2460
sg16
S'200mg DMT freebase CLEAN'
p2461
sg18
S'undeclared'
p2462
sa(dp2463
g10
S'cindylove'
p2464
sg12
g58
sg14
V\u0e3f9.07
p2465
sg16
S'Psilocybe cubensis Golden Teacher Spore Prints'
p2466
sg18
S'Asia'
p2467
sa(dp2468
g10
S'aus2aus'
p2469
sg12
S'100'
p2470
sg14
V\u0e3f39.63
p2471
sg16
S'50mg 25C-NBOMe HCl'
p2472
sg18
S'Australia'
p2473
sa(dp2474
g10
S'cripledcranium'
p2475
sg12
S'100'
p2476
sg14
V\u0e3f5.25
p2477
sg16
S'lsd 150ug Avatar '
p2478
sg18
S'undeclared'
p2479
sa(dp2480
g10
S'Missit'
p2481
sg12
S'83'
p2482
sg14
V\u0e3f33.02
p2483
sg16
S'1g 2C-E'
p2484
sg18
S'US'
p2485
sa(dp2486
g10
S'streetpharmacy'
p2487
sg12
S'99'
p2488
sg14
V\u0e3f83.45
p2489
sg16
S'25x Albert Hofmann "The Original" - Blotters'
p2490
sg18
S'Germany'
p2491
sa(dp2492
g10
S'badboy97'
p2493
sg12
g58
sg14
V\u0e3f13.32
p2494
sg16
S'DMT 1 Gram in Vial'
p2495
sg18
S'US'
p2496
sa(dp2497
g10
S'streetpharmacy'
p2498
sg12
S'99'
p2499
sg14
V\u0e3f3.65
p2500
sg16
S'CHEAP! "Flying Keys" - 2 hits'
p2501
sg18
S'undeclared'
p2502
sa(dp2503
g10
S'freedompeople'
p2504
sg12
S'97'
p2505
sg14
V\u0e3f152.03
p2506
sg16
S'50 LSD Stamps - 150 ug'
p2507
sg18
S'Netherlands'
p2508
sa(dp2509
g10
S'etizolam'
p2510
sg12
S'98'
p2511
sg14
V\u0e3f13.93
p2512
sg16
S'10mg 25B-NBOMe HCl powder, cut'
p2513
sg18
S'US'
p2514
sa(dp2515
g10
S'mantaray'
p2516
sg12
S'64'
p2517
sg14
V\u0e3f0.01
p2518
sg16
S'Acid Sheet @ pecunix/paypal'
p2519
sg18
S'USA'
p2520
sa(dp2521
g10
S'etizolam'
p2522
sg12
S'98'
p2523
sg14
V\u0e3f9.29
p2524
sg16
S'20mg 25D-NBOMe HCl 99% pure powder'
p2525
sg18
S'US'
p2526
sa(dp2527
g10
S'etizolam'
p2528
sg12
S'98'
p2529
sg14
V\u0e3f2.50
p2530
sg16
S'20mg 2C-T-2 2,5dimethoxy-4-ethylthiophenethylamine'
p2531
sg18
S'US'
p2532
sa(dp2533
g10
S'etizolam'
p2534
sg12
S'98'
p2535
sg14
V\u0e3f6.54
p2536
sg16
S'Classic DMT pipe for vaporization'
p2537
sg18
S'United States of America'
p2538
sa(dp2539
g10
S'serioussam'
p2540
sg12
S'98'
p2541
sg14
V\u0e3f121.01
p2542
sg16
S'DMT Freebase 5000mg N,N-DMT - Pure White'
p2543
sg18
S'Canada'
p2544
sa(dp2545
g10
S'etizolam'
p2546
sg12
S'98'
p2547
sg14
V\u0e3f0.66
p2548
sg16
S'20mg 2C-E 2,5-dimethoxy-4-chlorophenethylamine 99%'
p2549
sg18
S'United States of America'
p2550
sa(dp2551
g10
S'HugoReyes'
p2552
sg12
S'98'
p2553
sg14
V\u0e3f68.46
p2554
sg16
S'2C-T-7 - 1000mg'
p2555
sg18
S'USA'
p2556
sa(dp2557
g10
S'Missit'
p2558
sg12
S'83'
p2559
sg14
V\u0e3f33.02
p2560
sg16
S'250mg 25i-NBOMe'
p2561
sg18
S'US'
p2562
sa(dp2563
g10
S'Missit'
p2564
sg12
S'83'
p2565
sg14
V\u0e3f64.39
p2566
sg16
S'500mg 25I-Nbome'
p2567
sg18
S'US'
p2568
sa(dp2569
g10
S'abacus'
p2570
sg12
g58
sg14
V\u0e3f19.94
p2571
sg16
S'100 Psilocybe semilanceata / Liberty Cap Mushrooms'
p2572
sg18
S'Norway'
p2573
sa(dp2574
g10
S'cosmicwizard'
p2575
sg12
S'99'
p2576
sg14
V\u0e3f218.94
p2577
sg16
S'LSD liquid vials white fluff quality '
p2578
sg18
S'United States of America'
p2579
sa(dp2580
g10
S'cosmicwizard'
p2581
sg12
S'99'
p2582
sg14
V\u0e3f13.79
p2583
sg16
S'2x 2CB chocolate bars '
p2584
sg18
S' US'
p2585
sa(dp2586
g10
S'Missit'
p2587
sg12
S'83'
p2588
sg14
V\u0e3f15.03
p2589
sg16
S'4-HO-MET (50mg)'
p2590
sg18
S'US'
p2591
sa(dp2592
g10
S'Mitanox'
p2593
sg12
S'98'
p2594
sg14
V\u0e3f13.21
p2595
sg16
S'Dancing Bears LSD 130mics [5 tab]'
p2596
sg18
S'Netherlands'
p2597
sa(dp2598
g10
S'UnnamedGrower'
p2599
sg12
g58
sg14
V\u0e3f34.67
p2600
sg16
S'10x WoW(White on White) Blotter 120ug'
p2601
sg18
S'Canada'
p2602
sa(dp2603
g10
S'mantaray'
p2604
sg12
S'64'
p2605
sg14
V\u0e3f0.03
p2606
sg16
S'out of escrow Lucy 180 ug x 25'
p2607
sg18
S'undeclared'
p2608
sa(dp2609
g10
S'fungivore'
p2610
sg12
g58
sg14
V\u0e3f14.06
p2611
sg16
S'San Pedro Cactus Seed Pack - 10 seeds'
p2612
sg18
S'United States of America'
p2613
sa(dp2614
g10
S'fungivore'
p2615
sg12
g58
sg14
V\u0e3f322.07
p2616
sg16
S'Liquid LSD Vial - ~250 drops @ 50ug'
p2617
sg18
S'United States of America'
p2618
sa(dp2619
g10
S'edgarnumbers'
p2620
sg12
S'99'
p2621
sg14
V\u0e3f9.91
p2622
sg16
S'P. cubensis "Cambodian" - Single XL 1/8th'
p2623
sg18
S'United States of America'
p2624
sa(dp2625
g10
S'UnnamedGrower'
p2626
sg12
g58
sg14
V\u0e3f69.35
p2627
sg16
S'25x WoW (White on White) Blotter 120ug'
p2628
sg18
S'Canada'
p2629
sa(dp2630
g10
S'serioussam'
p2631
sg12
S'98'
p2632
sg14
V\u0e3f61.48
p2633
sg16
S'2C-B 1000mg'
p2634
sg18
S'Canada'
p2635
sa(dp2636
g10
S'gambit'
p2637
sg12
g58
sg14
V\u0e3f11.56
p2638
sg16
S'12gr Psilocybe Pajaritos'
p2639
sg18
S'The Netherlands'
p2640
sa(dp2641
g10
S'serioussam'
p2642
sg12
S'98'
p2643
sg14
V\u0e3f16.77
p2644
sg16
S'DMT Freebase 500mg N,N-DMT - Pure White'
p2645
sg18
S'Canada'
p2646
sa(dp2647
g10
S'serioussam'
p2648
sg12
S'98'
p2649
sg14
V\u0e3f26.47
p2650
sg16
S'DMT Freebase 1000mg N,N-DMT - Pure White'
p2651
sg18
S'Canada'
p2652
sa(dp2653
g10
S'gambit'
p2654
sg12
g58
sg14
V\u0e3f11.56
p2655
sg16
S'12gr Flesh of the Gods - Psilocybe Mexicana'
p2656
sg18
S'The Netherlands'
p2657
sa(dp2658
g10
S'gambit'
p2659
sg12
g58
sg14
V\u0e3f11.56
p2660
sg16
S'12gr Fruits of Utopia - Psilocybe Atlantis'
p2661
sg18
S'The Netherlands'
p2662
sa(dp2663
g10
S'serioussam'
p2664
sg12
S'98'
p2665
sg14
V\u0e3f104.04
p2666
sg16
S'2C-B 2000mg'
p2667
sg18
S'Canada'
p2668
sa(dp2669
g10
S'RipVanWinkle'
p2670
sg12
g58
sg14
V\u0e3f11.56
p2671
sg16
S'Psilocybe Cubensis B+ (2.5g - dried)'
p2672
sg18
S'Sweden'
p2673
sa(dp2674
g10
S'PillowTalk'
p2675
sg12
S'98'
p2676
sg14
V\u0e3f19.81
p2677
sg16
S"High Quality LSD 5x100ug Shiva's"
p2678
sg18
S'Netherlands'
p2679
sa(dp2680
g10
S'PillowTalk'
p2681
sg12
S'98'
p2682
sg14
V\u0e3f33.02
p2683
sg16
S"High Quality LSD 10x100ug Shiva's"
p2684
sg18
S'Netherlands'
p2685
sa(dp2686
g10
S'direwolf'
p2687
sg12
S'100'
p2688
sg14
V\u0e3f16.51
p2689
sg16
S'Ibogaine hcl 250 mg (98%)'
p2690
sg18
S'undeclared'
p2691
sa(dp2692
g10
S'namaste'
p2693
sg12
S'93'
p2694
sg14
V\u0e3f17.06
p2695
sg16
S'5 cap 2C-B (15mg)'
p2696
sg18
S'undeclared'
p2697
sa(dp2698
g10
S'Diogenes'
p2699
sg12
g58
sg14
V\u0e3f4.95
p2700
sg16
S"1 bloomingcolor's Avatar tab (free shipping)"
p2701
sg18
S'undeclared'
p2702
sa(dp2703
g10
S'UnnamedGrower'
p2704
sg12
g58
sg14
V\u0e3f135.39
p2705
sg16
S'50x WoW(White on White) Blotter'
p2706
sg18
S'Canada'
p2707
sa(dp2708
g10
S'ENBOOM'
p2709
sg12
S'100'
p2710
sg14
V\u0e3f42.93
p2711
sg16
S'25c-NBOMe 1mg Blotter x25'
p2712
sg18
S'United States of America'
p2713
sa(dp2714
g10
S'ENBOOM'
p2715
sg12
S'100'
p2716
sg14
V\u0e3f79.25
p2717
sg16
S'25c-NBOMe 1mg Blotter x50'
p2718
sg18
S'United States of America'
p2719
sa(dp2720
g10
S'ENBOOM'
p2721
sg12
S'100'
p2722
sg14
V\u0e3f9.91
p2723
sg16
S'25i-NBOMe 750ug Blotter x5'
p2724
sg18
S'United States of America'
p2725
sa(dp2726
g10
S'direwolf'
p2727
sg12
S'100'
p2728
sg14
V\u0e3f8.26
p2729
sg16
S'250 mg White freebase DMT microshards'
p2730
sg18
S'undeclared'
p2731
sa(dp2732
g10
S'direwolf'
p2733
sg12
S'100'
p2734
sg14
V\u0e3f9.91
p2735
sg16
S'Mushrooms and DMT combo pack (1/8th B+ + 50mg DMT)'
p2736
sg18
S'undeclared'
p2737
sa(dp2738
g10
S'direwolf'
p2739
sg12
S'100'
p2740
sg14
V\u0e3f28.07
p2741
sg16
S'1 Gram White DMT Freebase microshards'
p2742
sg18
S'undeclared'
p2743
sa(dp2744
g10
S'RipVanWinkle'
p2745
sg12
g58
sg14
V\u0e3f11.56
p2746
sg16
S'Psilocybe Cubensis Cambodian (2.5g - dried)'
p2747
sg18
S'Sweden'
p2748
sa(dp2749
g10
S'direwolf'
p2750
sg12
S'100'
p2751
sg14
V\u0e3f24.77
p2752
sg16
S'1 Gram of offwhite DMT large shards'
p2753
sg18
S'undeclared'
p2754
sa(dp2755
g10
S'RipVanWinkle'
p2756
sg12
g58
sg14
V\u0e3f11.56
p2757
sg16
S'Psilocybe Cubensis Ecuador (2.5g - dried)'
p2758
sg18
S'Sweden'
p2759
sa(dp2760
g10
S'ENBOOM'
p2761
sg12
S'100'
p2762
sg14
V\u0e3f4.62
p2763
sg16
S'25c-NBOMe 1mg Blotter x1'
p2764
sg18
S'United States of America'
p2765
sa(dp2766
g10
S'RipVanWinkle'
p2767
sg12
g58
sg14
V\u0e3f2.31
p2768
sg16
S'*FREE SAMPLE* Psilocybe Cubensis *LIMITED*'
p2769
sg18
S'Sweden'
p2770
sa(dp2771
g10
S'mantaray'
p2772
sg12
S'64'
p2773
sg14
V\u0e3f8.48
p2774
sg16
S'Bulk psychedelics contact'
p2775
sg18
S'Eu'
p2776
sa(dp2777
g10
S'Missit'
p2778
sg12
S'83'
p2779
sg14
V\u0e3f4.21
p2780
sg16
S'25i-NBOMe Sample 1mg'
p2781
sg18
S'US'
p2782
sa(dp2783
g10
S'KJohn'
p2784
sg12
g58
sg14
V\u0e3f23.96
p2785
sg16
S' 7 grams Psilocybin Cubensis, dried'
p2786
sg18
S'Austria'
p2787
saaa(lp2788
(lp2789
S'Dissociatives'
p2790
aa(lp2791
(dp2792
g10
S'reich'
p2793
sg12
S'100'
p2794
sg14
V\u0e3f10.62
p2795
sg16
S'1g MXE (International)'
p2796
sg18
S'United Kingdom'
p2797
sa(dp2798
g10
S'juergen2001'
p2799
sg12
S'98'
p2800
sg14
V\u0e3f23.12
p2801
sg16
S'1g pure Ketamin'
p2802
sg18
S'Germany'
p2803
sa(dp2804
g10
S'Pharmville'
p2805
sg12
S'99'
p2806
sg14
V\u0e3f17.97
p2807
sg16
S'100% pure Ketamine crystals (Bioket) 0.5gram'
p2808
sg18
S'United States of America'
p2809
sa(dp2810
g10
S'reich'
p2811
sg12
S'100'
p2812
sg14
V\u0e3f6.36
p2813
sg16
S'500Mg MXE (International)'
p2814
sg18
S'United Kingdom'
p2815
sa(dp2816
g10
S'Pharmville'
p2817
sg12
S'99'
p2818
sg14
V\u0e3f32.61
p2819
sg16
S'100% pure Ketamine crystals (Bioket) 1 gram'
p2820
sg18
S'United States of America'
p2821
sa(dp2822
g10
S'DRamsterdam'
p2823
sg12
S'97'
p2824
sg14
V\u0e3f18.40
p2825
sg16
S'1 gram of Ketamine (lab tested)'
p2826
sg18
S'The Netherlands'
p2827
sa(dp2828
g10
S'PillowTalk'
p2829
sg12
S'98'
p2830
sg14
V\u0e3f23.12
p2831
sg16
S'High Quality 1gram Ketamine S '
p2832
sg18
S'Netherlands'
p2833
sa(dp2834
g10
S'Paperchasing'
p2835
sg12
S'99'
p2836
sg14
V\u0e3f9.40
p2837
sg16
S'MXE - 40mg capsules x 10'
p2838
sg18
S'United States of America'
p2839
sa(dp2840
g10
S'serioussam'
p2841
sg12
S'98'
p2842
sg14
V\u0e3f18.92
p2843
sg16
S'Ketamine - 1 gram'
p2844
sg18
S'Canada'
p2845
sa(dp2846
g10
S'aakoven'
p2847
sg12
S'98'
p2848
sg14
V\u0e3f18.39
p2849
sg16
S'1 GR * KETAMINE ** PURE THE BEST..!!! **'
p2850
sg18
S'Netherlands'
p2851
sa(dp2852
g10
S'etizolam'
p2853
sg12
S'98'
p2854
sg14
V\u0e3f0.66
p2855
sg16
S'100mg DXM HBr dextromethorphan'
p2856
sg18
S'US'
p2857
sa(dp2858
g10
S'reich'
p2859
sg12
S'100'
p2860
sg14
V\u0e3f8.32
p2861
sg16
S'1g MXE Domestic shipped '
p2862
sg18
S'United Kingdom'
p2863
sa(dp2864
g10
S'freedompeople'
p2865
sg12
S'97'
p2866
sg14
V\u0e3f21.57
p2867
sg16
S'1 Gram - Ketamine (In Stock)'
p2868
sg18
S'Netherlands'
p2869
sa(dp2870
g10
S'etizolam'
p2871
sg12
S'98'
p2872
sg14
V\u0e3f329.90
p2873
sg16
S'10mg MXE methoxetamine.co.uk official 5 sourced'
p2874
sg18
S'US'
p2875
sa(dp2876
g10
S'reich'
p2877
sg12
S'100'
p2878
sg14
V\u0e3f4.92
p2879
sg16
S'500Mg MXE (Domestic)'
p2880
sg18
S'United Kingdom'
p2881
sa(dp2882
g10
S'TripleBeam'
p2883
sg12
S'100'
p2884
sg14
V\u0e3f16.49
p2885
sg16
S'500mg Methoxetamine Pure'
p2886
sg18
S'AUS'
p2887
sa(dp2888
g10
S'reich'
p2889
sg12
S'100'
p2890
sg14
V\u0e3f16.68
p2891
sg16
S'1g  4-Meo-PCP (International)'
p2892
sg18
S'United Kingdom'
p2893
sa(dp2894
g10
S'freedompeople'
p2895
sg12
S'97'
p2896
sg14
V\u0e3f10.83
p2897
sg16
S'0.5 Gram - Ketamine Tryout Pack'
p2898
sg18
S'Netherlands'
p2899
sa(dp2900
g10
S'aakoven'
p2901
sg12
S'98'
p2902
sg14
V\u0e3f35.13
p2903
sg16
S'2 GR * KETAMINE ** PURE THE BEST..!!! *****'
p2904
sg18
S'Nevis'
p2905
sa(dp2906
g10
S'reich'
p2907
sg12
S'100'
p2908
sg14
V\u0e3f8.34
p2909
sg16
S'500Mg 4-Meo-PCP (International)'
p2910
sg18
S'United Kingdom'
p2911
sa(dp2912
g10
S'spotter'
p2913
sg12
S'100'
p2914
sg14
V\u0e3f9.98
p2915
sg16
S'250mg MXE'
p2916
sg18
S'US'
p2917
sa(dp2918
g10
S'freedompeople'
p2919
sg12
S'97'
p2920
sg14
V\u0e3f21.57
p2921
sg16
S'1 Gram - Ketamin (In Stock) for USA'
p2922
sg18
S'Netherlands'
p2923
sa(dp2924
g10
S'serioussam'
p2925
sg12
S'98'
p2926
sg14
V\u0e3f33.12
p2927
sg16
S'Ketamine - 2 grams'
p2928
sg18
S'Canada'
p2929
sa(dp2930
g10
S'aus2aus'
p2931
sg12
S'100'
p2932
sg14
V\u0e3f16.51
p2933
sg16
S'1/3g Ketamine'
p2934
sg18
S'Australia'
p2935
sa(dp2936
g10
S'dmtdoodeelsd'
p2937
sg12
g58
sg14
V\u0e3f16.51
p2938
sg16
S'1g Ketamine HCL, in shard/crystal form'
p2939
sg18
S'United Kingdom'
p2940
sa(dp2941
g10
S'etizolam'
p2942
sg12
S'98'
p2943
sg14
V\u0e3f18.71
p2944
sg16
S'Whip cream dispenser, takes nitrous oxide chargers'
p2945
sg18
S'US'
p2946
sa(dp2947
g10
S'etizolam'
p2948
sg12
S'98'
p2949
sg14
V\u0e3f329.90
p2950
sg16
S'Box of 24 nitrous oxide chargers for whip cream'
p2951
sg18
S'US'
p2952
sa(dp2953
g10
S'freedompeople'
p2954
sg12
S'97'
p2955
sg14
V\u0e3f45.87
p2956
sg16
S'2.5 Grams - Ketamine Special'
p2957
sg18
S'Netherlands'
p2958
sa(dp2959
g10
S'DRamsterdam'
p2960
sg12
S'97'
p2961
sg14
V\u0e3f131.41
p2962
sg16
S'10 grams of pure ketamine (lab tested) (Bulk Disco'
p2963
sg18
S'The Netherlands'
p2964
sa(dp2965
g10
S'HugoReyes'
p2966
sg12
S'98'
p2967
sg14
V\u0e3f324.24
p2968
sg16
S'4-MeO-PCP    -    65g'
p2969
sg18
S'UK'
p2970
sa(dp2971
g10
S'etizolam'
p2972
sg12
S'98'
p2973
sg14
V\u0e3f18.11
p2974
sg16
S'1000mg of 98%+ methoxetamine (3-MeO-2-Oxo-PCE)'
p2975
sg18
S'US'
p2976
sa(dp2977
g10
S'etizolam'
p2978
sg12
S'98'
p2979
sg14
V\u0e3f49.54
p2980
sg16
S'1000mg 4-methoxy-phencyclidine 4-MeO-PCP HCl'
p2981
sg18
S'US'
p2982
sa(dp2983
g10
S'TripleBeam'
p2984
sg12
S'100'
p2985
sg14
V\u0e3f29.66
p2986
sg16
S'1Gram Methoxetamine Pure'
p2987
sg18
S'AUS'
p2988
sa(dp2989
g10
S'HugoReyes'
p2990
sg12
S'98'
p2991
sg14
V\u0e3f20.44
p2992
sg16
S'4-MeO-PCP'
p2993
sg18
S'UK'
p2994
sa(dp2995
g10
S'DRamsterdam'
p2996
sg12
S'97'
p2997
sg14
V\u0e3f78.84
p2998
sg16
S'5 grams of 73% pure ketamine lab tested!'
p2999
sg18
S'The Netherlands'
p3000
saaa(lp3001
(lp3002
S'Stimulants'
p3003
aa(lp3004
(dp3005
g10
S'tetravort'
p3006
sg12
S'99'
p3007
sg14
V\u0e3f33.53
p3008
sg16
S'Very Pure Fishscale Cocaine (1 gm)'
p3009
sg18
S'United States of America'
p3010
sa(dp3011
g10
S'Coherence'
p3012
sg12
S'100'
p3013
sg14
V\u0e3f8.32
p3014
sg16
S'Modafinil (generic) - 200mg x 10 tablets'
p3015
sg18
S'undeclared'
p3016
sa(dp3017
g10
S'tetravort'
p3018
sg12
S'99'
p3019
sg14
V\u0e3f117.38
p3020
sg16
S'Very Pure Fishscale Cocaine (3.5 gm)'
p3021
sg18
S'United States of America'
p3022
sa(dp3023
g10
S'slappy'
p3024
sg12
S'99'
p3025
sg14
V\u0e3f46.23
p3026
sg16
S'1.75 grams purest, tested Colombian cocaine'
p3027
sg18
S'United States of America'
p3028
sa(dp3029
g10
S'Der Speed Doktor'
p3030
sg12
S'100'
p3031
sg14
V\u0e3f6.06
p3032
sg16
S'Amphetamine paste (Speed, Pep, Paste) - 1g'
p3033
sg18
S'undeclared'
p3034
sa(dp3035
g10
S'Der Speed Doktor'
p3036
sg12
S'100'
p3037
sg14
V\u0e3f19.55
p3038
sg16
S'Amphetamine paste (Speed, Pep, Paste) - 5g'
p3039
sg18
S'undeclared'
p3040
sa(dp3041
g10
S'slappy'
p3042
sg12
S'99'
p3043
sg14
V\u0e3f82.56
p3044
sg16
S'3.5 grams purest, tested Colombian cocaine'
p3045
sg18
S'United States of America'
p3046
sa(dp3047
g10
S'aakoven'
p3048
sg12
S'98'
p3049
sg14
V\u0e3f10.00
p3050
sg16
S' 2 GR *DUTCH * Amphetamine , ***SPEED ***'
p3051
sg18
S'Netherlands'
p3052
sa(dp3053
g10
S'Coherence'
p3054
sg12
S'100'
p3055
sg14
V\u0e3f22.23
p3056
sg16
S'Modafinil (generic) - 200mg x 30 tablets'
p3057
sg18
S'undeclared'
p3058
sa(dp3059
g10
S'Dopeboy'
p3060
sg12
S'100'
p3061
sg14
V\u0e3f29.73
p3062
sg16
S'Methamphetamine Ultra High Purity 500mg'
p3063
sg18
S'Canada'
p3064
sa(dp3065
g10
S'Redenbacher'
p3066
sg12
S'97'
p3067
sg14
V\u0e3f3.17
p3068
sg16
S'Ephedrine HCL 304mg (38 x 8mg)'
p3069
sg18
S'Canada'
p3070
sa(dp3071
g10
S'jackrabbit31'
p3072
sg12
S'99'
p3073
sg14
V\u0e3f5.74
p3074
sg16
S'Adderall - Amphetamine - 20mg x (1) '
p3075
sg18
S'United States of America'
p3076
sa(dp3077
g10
S'Dopeboy'
p3078
sg12
S'100'
p3079
sg14
V\u0e3f16.50
p3080
sg16
S'Methamphetamine Ultra High Purity 250mg'
p3081
sg18
S'Canada'
p3082
sa(dp3083
g10
S'XTCking'
p3084
sg12
S'99'
p3085
sg14
V\u0e3f7.25
p3086
sg16
S'1 gram of Speed !'
p3087
sg18
S'Netherlands'
p3088
sa(dp3089
g10
S'ficusfucker'
p3090
sg12
S'98'
p3091
sg14
V\u0e3f1.04
p3092
sg16
S'*** Modalert 200 mg Modafinil *****  1 x pill'
p3093
sg18
S'United States of America'
p3094
sa(dp3095
g10
S'DRamsterdam'
p3096
sg12
S'97'
p3097
sg14
V\u0e3f10.96
p3098
sg16
S'2 grams of high quality dry speed'
p3099
sg18
S'The Netherlands'
p3100
sa(dp3101
g10
S'Dopeboy'
p3102
sg12
S'100'
p3103
sg14
V\u0e3f52.85
p3104
sg16
S'Methamphetamine Ultra High Purity 1 gram'
p3105
sg18
S'Canada'
p3106
sa(dp3107
g10
S'mrouid'
p3108
sg12
S'99'
p3109
sg14
V\u0e3f43.52
p3110
sg16
S'White "Ice" Speed pills (Qty: 25)'
p3111
sg18
S'Canada'
p3112
sa(dp3113
g10
S'edgarnumbers'
p3114
sg12
S'99'
p3115
sg14
V\u0e3f9.91
p3116
sg16
S'4-FA  - 1g'
p3117
sg18
S'United States of America'
p3118
sa(dp3119
g10
S'ENBOOM'
p3120
sg12
S'100'
p3121
sg14
V\u0e3f9.91
p3122
sg16
S'500mg 4-MMC Mephedrone'
p3123
sg18
S'United States of America'
p3124
sa(dp3125
g10
S'etizolam'
p3126
sg12
S'98'
p3127
sg14
V\u0e3f0.64
p3128
sg16
S'10mg Troparil / WIN 35065-2'
p3129
sg18
S'US'
p3130
sa(dp3131
g10
S'ficusfucker'
p3132
sg12
S'98'
p3133
sg14
V\u0e3f6.68
p3134
sg16
S'Ephedrine  HCL 30mg  20 pills  the real thing!'
p3135
sg18
S'United States of America'
p3136
sa(dp3137
g10
S'BAWSLY'
p3138
sg12
S'100'
p3139
sg14
V\u0e3f3.89
p3140
sg16
S'Adderall 30mg IR generic'
p3141
sg18
S'United States of America'
p3142
sa(dp3143
g10
S'Coherence'
p3144
sg12
S'100'
p3145
sg14
V\u0e3f14.83
p3146
sg16
S'Armodafinil (generic Nuvigil) - 150mg x 10 tablets'
p3147
sg18
S'undeclared'
p3148
sa(dp3149
g10
S'Coherence'
p3150
sg12
S'100'
p3151
sg14
V\u0e3f4.77
p3152
sg16
S'Modafinil (generic) - 200mg x 5 tablets'
p3153
sg18
S'undeclared'
p3154
sa(dp3155
g10
S'Paperchasing'
p3156
sg12
S'99'
p3157
sg14
V\u0e3f8.46
p3158
sg16
S'4-FMA  - 1 gram'
p3159
sg18
S'United States of America'
p3160
sa(dp3161
g10
S'AusBudz'
p3162
sg12
S'100'
p3163
sg14
V\u0e3f6.60
p3164
sg16
S'Geranamine (DMAA, Dimethylamylamine) - 1g'
p3165
sg18
S'Australia'
p3166
sa(dp3167
g10
S'doctor'
p3168
sg12
S'90'
p3169
sg14
V\u0e3f22.71
p3170
sg16
S'5x Adderall 20mg IR'
p3171
sg18
S'USA'
p3172
sa(dp3173
g10
S'sesampino'
p3174
sg12
S'100'
p3175
sg14
V\u0e3f82.23
p3176
sg16
S'Premium Quality Cocaine (2,5 GR)'
p3177
sg18
S'EU'
p3178
sa(dp3179
g10
S'mrouid'
p3180
sg12
S'99'
p3181
sg14
V\u0e3f77.72
p3182
sg16
S'White "Ice" Speed pills (Qty: 50)'
p3183
sg18
S'Canada'
p3184
sa(dp3185
g10
S'BansheeBeat'
p3186
sg12
g58
sg14
V\u0e3f95.34
p3187
sg16
S'3.5 Grams of Tested Cocaine'
p3188
sg18
S'Canada'
p3189
sa(dp3190
g10
S'MadameBradley'
p3191
sg12
S'100'
p3192
sg14
V\u0e3f12.30
p3193
sg16
S'Methylphenidate ER 27mg x 10 pills'
p3194
sg18
S'Canada'
p3195
sa(dp3196
g10
S'aakoven'
p3197
sg12
S'98'
p3198
sg14
V\u0e3f10.52
p3199
sg16
S'2-GR ** PINK* PEP. ***DUTCH ** **Amphetamine ** '
p3200
sg18
S'Netherlands'
p3201
sa(dp3202
g10
S'etizolam'
p3203
sg12
S'98'
p3204
sg14
V\u0e3f0.89
p3205
sg16
S'10mg Dichloropane / RTI-111'
p3206
sg18
S'US'
p3207
sa(dp3208
g10
S'Redenbacher'
p3209
sg12
S'97'
p3210
sg14
V\u0e3f1.81
p3211
sg16
S'Ephedrine 8mg x 10 pills '
p3212
sg18
S'North America'
p3213
sa(dp3214
g10
S'tetravort'
p3215
sg12
S'99'
p3216
sg14
V\u0e3f24.61
p3217
sg16
S'Custom listing for eiag'
p3218
sg18
S'US'
p3219
sa(dp3220
g10
S'tetravort'
p3221
sg12
S'99'
p3222
sg14
V\u0e3f32.68
p3223
sg16
S'Custom listing for rneb'
p3224
sg18
S'US'
p3225
sa(dp3226
g10
S'tetravort'
p3227
sg12
S'99'
p3228
sg14
V\u0e3f17.04
p3229
sg16
S'Custom listing for 88ma'
p3230
sg18
S'US'
p3231
sa(dp3232
g10
S'tetravort'
p3233
sg12
S'99'
p3234
sg14
V\u0e3f32.46
p3235
sg16
S'Custom listing for nhos'
p3236
sg18
S'US'
p3237
sa(dp3238
g10
S'spirit'
p3239
sg12
S'100'
p3240
sg14
V\u0e3f7.51
p3241
sg16
S'amitriptyline 25mg tabs x28'
p3242
sg18
S'undeclared'
p3243
sa(dp3244
g10
S'slappy'
p3245
sg12
S'99'
p3246
sg14
V\u0e3f3,302.25
p3247
sg16
S'Photo of my cocaine test results'
p3248
sg18
S'US'
p3249
sa(dp3250
g10
S'tetravort'
p3251
sg12
S'99'
p3252
sg14
V\u0e3f6.79
p3253
sg16
S'Custom listing for 30lg'
p3254
sg18
S'United States of America'
p3255
sa(dp3256
g10
S'moveitnice'
p3257
sg12
S'100'
p3258
sg14
V\u0e3f27.21
p3259
sg16
S'1 Gram Cocaine'
p3260
sg18
S'Canada'
p3261
sa(dp3262
g10
S'moveitnice'
p3263
sg12
S'100'
p3264
sg14
V\u0e3f81.63
p3265
sg16
S'3.5 Grams (8 Ball) Cocaine in Rock Form'
p3266
sg18
S'Canada'
p3267
sa(dp3268
g10
S'tetravort'
p3269
sg12
S'99'
p3270
sg14
V\u0e3f16.98
p3271
sg16
S'Custom listing for 0eh'
p3272
sg18
S'US'
p3273
sa(dp3274
g10
S'witcher'
p3275
sg12
S'86'
p3276
sg14
V\u0e3f17.71
p3277
sg16
S'Mumio, Shilajit'
p3278
sg18
S'UK'
p3279
sa(dp3280
g10
S'tetravort'
p3281
sg12
S'99'
p3282
sg14
V\u0e3f28.35
p3283
sg16
S'Custom listing for 8zom'
p3284
sg18
S'US'
p3285
sa(dp3286
g10
S'joy'
p3287
sg12
S'100'
p3288
sg14
V\u0e3f17.03
p3289
sg16
S'Kopi Luwak'
p3290
sg18
S'Indonesia'
p3291
sa(dp3292
g10
S'ficusfucker'
p3293
sg12
S'98'
p3294
sg14
V\u0e3f29.81
p3295
sg16
S'Ephedrine 30mg  x  96 Pills '
p3296
sg18
S'United States of America'
p3297
sa(dp3298
g10
S'tetravort'
p3299
sg12
S'99'
p3300
sg14
V\u0e3f17.75
p3301
sg16
S'Custom listing for sset'
p3302
sg18
S'US'
p3303
sa(dp3304
g10
S'tetravort'
p3305
sg12
S'99'
p3306
sg14
V\u0e3f18.66
p3307
sg16
S'Custom listing for 42zg'
p3308
sg18
S'US'
p3309
sa(dp3310
g10
S'Redenbacher'
p3311
sg12
S'97'
p3312
sg14
V\u0e3f2.05
p3313
sg16
S'Cheapest Ephedrine on SR Custom Listings'
p3314
sg18
S'North America'
p3315
sa(dp3316
g10
S'tetravort'
p3317
sg12
S'99'
p3318
sg14
V\u0e3f48.78
p3319
sg16
S'Custom listing for 01t'
p3320
sg18
S'US'
p3321
sa(dp3322
g10
S'swch'
p3323
sg12
S'94'
p3324
sg14
V\u0e3f103.03
p3325
sg16
S'100 x 100mg Sildenafil (Viagra/Eriacta)'
p3326
sg18
S'Switzerland'
p3327
sa(dp3328
g10
S'azura540'
p3329
sg12
S'97'
p3330
sg14
V\u0e3f29.13
p3331
sg16
S'Ritalin 50 x 10mg'
p3332
sg18
S'United Kingdom'
p3333
sa(dp3334
g10
S'SR Discount Pharmacy'
p3335
sg12
S'95'
p3336
sg14
V\u0e3f58.75
p3337
sg16
S'10 x  Adderal 30mg IR '
p3338
sg18
S'United States of America'
p3339
sa(dp3340
g10
S'azura540'
p3341
sg12
S'97'
p3342
sg14
V\u0e3f52.41
p3343
sg16
S'Ritalin 100 x 10mg'
p3344
sg18
S'United Kingdom'
p3345
sa(dp3346
g10
S'azura540'
p3347
sg12
S'97'
p3348
sg14
V\u0e3f11.54
p3349
sg16
S'Ritalin 20 x 10mg'
p3350
sg18
S'United Kingdom'
p3351
sa(dp3352
g10
S'RobertE'
p3353
sg12
g58
sg14
V\u0e3f6.27
p3354
sg16
S'[0.25 g] Cocaine (sample) - High quality'
p3355
sg18
S'undeclared'
p3356
sa(dp3357
g10
S'PaythePiper'
p3358
sg12
S'99'
p3359
sg14
V\u0e3f12.96
p3360
sg16
S'Adderall IR 20mg x 4'
p3361
sg18
S'United States of America'
p3362
sa(dp3363
g10
S'Coherence'
p3364
sg12
S'100'
p3365
sg14
V\u0e3f9.61
p3366
sg16
S'Armodafinil (generic Nuvigil) - 150mg x 5 tablets'
p3367
sg18
S'undeclared'
p3368
sa(dp3369
g10
S'BAWSLY'
p3370
sg12
S'100'
p3371
sg14
V\u0e3f21.28
p3372
sg16
S'Adderall 10x30mg IR generic'
p3373
sg18
S'United States of America'
p3374
sa(dp3375
g10
S'tetravort'
p3376
sg12
S'99'
p3377
sg14
V\u0e3f29.45
p3378
sg16
S'Custom listing for 31lc'
p3379
sg18
S'US'
p3380
sa(dp3381
g10
S'DRamsterdam'
p3382
sg12
S'97'
p3383
sg14
V\u0e3f22.65
p3384
sg16
S'5 gram of speed lab tested'
p3385
sg18
S'The Netherlands'
p3386
sa(dp3387
g10
S'Avon'
p3388
sg12
S'95'
p3389
sg14
V\u0e3f4.03
p3390
sg16
S'DEXedrine 15mg capsules'
p3391
sg18
S'undeclared'
p3392
sa(dp3393
g10
S'mrouid'
p3394
sg12
S'99'
p3395
sg14
V\u0e3f139.89
p3396
sg16
S'White "Ice" Speed pills (Qty: 100)'
p3397
sg18
S'Canada'
p3398
sa(dp3399
g10
S'sesampino'
p3400
sg12
S'100'
p3401
sg14
V\u0e3f156.86
p3402
sg16
S'Premium Quality Cocaine (5 GR)'
p3403
sg18
S'EU'
p3404
sa(dp3405
g10
S'lotsalove'
p3406
sg12
S'100'
p3407
sg14
V\u0e3f5.94
p3408
sg16
S'Cymbalta 60mg x7'
p3409
sg18
S'internet'
p3410
sa(dp3411
g10
S'thatoneguy75'
p3412
sg12
g58
sg14
V\u0e3f6.43
p3413
sg16
S'0.2g sample of some High Quality Cocaine! 5 stars!'
p3414
sg18
S'United States of America'
p3415
sa(dp3416
g10
S'SmileTabs'
p3417
sg12
g58
sg14
V\u0e3f40.62
p3418
sg16
S'Adderall 20mg x 10 Pills'
p3419
sg18
S'United States of America'
p3420
sa(dp3421
g10
S'tetravort'
p3422
sg12
S'99'
p3423
sg14
V\u0e3f13.85
p3424
sg16
S'Custom listing for rlim'
p3425
sg18
S'United States of America'
p3426
sa(dp3427
g10
S'edgarnumbers'
p3428
sg12
S'99'
p3429
sg14
V\u0e3f13.21
p3430
sg16
S'2-FA 1g'
p3431
sg18
S'United States of America'
p3432
sa(dp3433
g10
S'sesampino'
p3434
sg12
S'100'
p3435
sg14
V\u0e3f37.98
p3436
sg16
S'custom listing for larsson72.'
p3437
sg18
S'Afghanistan'
p3438
sa(dp3439
g10
S'aakoven'
p3440
sg12
S'98'
p3441
sg14
V\u0e3f35.29
p3442
sg16
S'10-GR *DUTCH * Amphetamine ,*SPEED*+1 GR FOR FREE'
p3443
sg18
S'Netherlands'
p3444
sa(dp3445
g10
S'aakoven'
p3446
sg12
S'98'
p3447
sg14
V\u0e3f39.51
p3448
sg16
S'10-GR *DUTCH ** PINK*  * Amphetamine ,*SPEED*'
p3449
sg18
S'Netherlands'
p3450
sa(dp3451
g10
S'aakoven'
p3452
sg12
S'98'
p3453
sg14
V\u0e3f20.37
p3454
sg16
S'5 -GR  ** PINK* PEP. ***DUTCH ** **Amphetamine ** '
p3455
sg18
S'Netherlands'
p3456
sa(dp3457
g10
S'Synaptic'
p3458
sg12
S'97'
p3459
sg14
V\u0e3f3.80
p3460
sg16
S'10mg Adderall Sample in Nuka Cola Bottlecap.'
p3461
sg18
S'United States of America'
p3462
sa(dp3463
g10
S'PillowTalk'
p3464
sg12
S'98'
p3465
sg14
V\u0e3f33.02
p3466
sg16
S'High Quality Dutch Amphetamine/ Speed 10 gram'
p3467
sg18
S'Netherlands'
p3468
sa(dp3469
g10
S'tetravort'
p3470
sg12
S'99'
p3471
sg14
V\u0e3f37.03
p3472
sg16
S'Custom listing for 3rta'
p3473
sg18
S'United States of America'
p3474
sa(dp3475
g10
S'tetravort'
p3476
sg12
S'99'
p3477
sg14
V\u0e3f89.10
p3478
sg16
S'Custom listing for oaov'
p3479
sg18
S'United States of America'
p3480
sa(dp3481
g10
S'bluedreamer'
p3482
sg12
g58
sg14
V\u0e3f5.36
p3483
sg16
S'Adderall 10mg IR - 2 tablets'
p3484
sg18
S'United States of America'
p3485
sa(dp3486
g10
S'tetravort'
p3487
sg12
S'99'
p3488
sg14
V\u0e3f16.59
p3489
sg16
S'Custom listing for teat'
p3490
sg18
S'United States of America'
p3491
sa(dp3492
g10
S'bluedreamer'
p3493
sg12
g58
sg14
V\u0e3f14.56
p3494
sg16
S' Adderall 10mg IR- 5 tablets '
p3495
sg18
S'United States of America'
p3496
sa(dp3497
g10
S'bluedreamer'
p3498
sg12
g58
sg14
V\u0e3f16.17
p3499
sg16
S'Adderall 30mg XR - 2 capsules'
p3500
sg18
S'United States of America'
p3501
sa(dp3502
g10
S'easypeezy'
p3503
sg12
S'100'
p3504
sg14
V\u0e3f23.45
p3505
sg16
S'4x Adderall 20mg IR (generic)'
p3506
sg18
S'United States of America'
p3507
sa(dp3508
g10
S'RobertE'
p3509
sg12
g58
sg14
V\u0e3f26.42
p3510
sg16
S'[1.0 g] Cocaine - High quality'
p3511
sg18
S'undeclared'
p3512
sa(dp3513
g10
S'tetravort'
p3514
sg12
S'99'
p3515
sg14
V\u0e3f17.11
p3516
sg16
S'Custom listing for MA05'
p3517
sg18
S'United States of America'
p3518
sa(dp3519
g10
S'BansheeBeat'
p3520
sg12
g58
sg14
V\u0e3f31.30
p3521
sg16
S'1 Gram of High Quality Cocaine'
p3522
sg18
S'Canada'
p3523
sa(dp3524
g10
S'aakoven'
p3525
sg12
S'98'
p3526
sg14
V\u0e3f18.93
p3527
sg16
S'5-GR *DUTCH * Amphetamine , ***SPEED ***'
p3528
sg18
S'Netherlands'
p3529
sa(dp3530
g10
S'tetravort'
p3531
sg12
S'99'
p3532
sg14
V\u0e3f16.75
p3533
sg16
S'Custom listing for cntb'
p3534
sg18
S'US'
p3535
sa(dp3536
g10
S'tetravort'
p3537
sg12
S'99'
p3538
sg14
V\u0e3f23.50
p3539
sg16
S'Custom listing for 92ye'
p3540
sg18
S'US'
p3541
sa(dp3542
g10
S'Redenbacher'
p3543
sg12
S'97'
p3544
sg14
V\u0e3f25.19
p3545
sg16
S'Ephedrine 8mg x 380 pills = 30mg x  96 pills '
p3546
sg18
S'Canada'
p3547
sa(dp3548
g10
S'tetravort'
p3549
sg12
S'99'
p3550
sg14
V\u0e3f16.50
p3551
sg16
S'Custom listing for nna'
p3552
sg18
S'US'
p3553
sa(dp3554
g10
S'tetravort'
p3555
sg12
S'99'
p3556
sg14
V\u0e3f44.27
p3557
sg16
S'Custom listing for licj'
p3558
sg18
S'US'
p3559
sa(dp3560
g10
S'AusBudz'
p3561
sg12
S'100'
p3562
sg14
V\u0e3f65.43
p3563
sg16
S'Geranamine (DMAA, Dimethylamylamine) - 1oz (28g)'
p3564
sg18
S'Australia'
p3565
saaa(lp3566
(lp3567
S'Cannabis'
p3568
aS'Seeds'
p3569
aa(lp3570
(dp3571
g10
S'Variety Jones'
p3572
sg12
g58
sg14
V\u0e3f11.81
p3573
sg16
S'Dutch Passion Purple #1 Breeders Pack'
p3574
sg18
S'United Kingdom'
p3575
sa(dp3576
g10
S'Variety Jones'
p3577
sg12
g58
sg14
V\u0e3f11.81
p3578
sg16
S'Dutch Passion Skunk Passion Breeders Pack'
p3579
sg18
S'United Kingdom'
p3580
sa(dp3581
g10
S'Variety Jones'
p3582
sg12
g58
sg14
V\u0e3f14.61
p3583
sg16
S'Dutch Passion Orange Bud Breeders Pack'
p3584
sg18
S'United Kingdom'
p3585
sa(dp3586
g10
S'Variety Jones'
p3587
sg12
g58
sg14
V\u0e3f19.27
p3588
sg16
S'Dutch Passion Oasis Breeders Pack'
p3589
sg18
S'United Kingdom'
p3590
sa(dp3591
g10
S'Variety Jones'
p3592
sg12
g58
sg14
V\u0e3f16.79
p3593
sg16
S'Homegrown Fantaseeds Caramella Breeders Pack'
p3594
sg18
S'United Kingdom'
p3595
sa(dp3596
g10
S'Variety Jones'
p3597
sg12
g58
sg14
V\u0e3f14.30
p3598
sg16
S'Homegrown Fantaseeds Four Way Breeders Pack'
p3599
sg18
S'United Kingdom'
p3600
sa(dp3601
g10
S'Variety Jones'
p3602
sg12
g58
sg14
V\u0e3f10.26
p3603
sg16
S'Homegrown Fantaseeds Homegrown Kush Breeders Pack'
p3604
sg18
S'United Kingdom'
p3605
sa(dp3606
g10
S'Variety Jones'
p3607
sg12
g58
sg14
V\u0e3f19.27
p3608
sg16
S'Homegrown Fantaseeds Shiva Afghani Breeders Pack'
p3609
sg18
S'United Kingdom'
p3610
sa(dp3611
g10
S'Variety Jones'
p3612
sg12
g58
sg14
V\u0e3f10.26
p3613
sg16
S'Homegrown Fantaseed Homegrown Purple Breeders Pack'
p3614
sg18
S'United Kingdom'
p3615
sa(dp3616
g10
S'Variety Jones'
p3617
sg12
g58
sg14
V\u0e3f24.56
p3618
sg16
S'Homegrown Fantaseeds Original Misty Breeders Pack'
p3619
sg18
S'United Kingdom'
p3620
sa(dp3621
g10
S'Variety Jones'
p3622
sg12
g58
sg14
V\u0e3f12.43
p3623
sg16
S'Homegrown Fantaseeds Skunk #1 Breeders Pack'
p3624
sg18
S'United Kingdom'
p3625
sa(dp3626
g10
S'Variety Jones'
p3627
sg12
g58
sg14
V\u0e3f10.26
p3628
sg16
S'Homegrown Fantaseeds Purple Power Breeders Pack'
p3629
sg18
S'United Kingdom'
p3630
sa(dp3631
g10
S'Variety Jones'
p3632
sg12
g58
sg14
V\u0e3f14.30
p3633
sg16
S'Homegrown Fantaseeds Shiva Breeders Pack'
p3634
sg18
S'United Kingdom'
p3635
sa(dp3636
g10
S'Variety Jones'
p3637
sg12
g58
sg14
V\u0e3f16.79
p3638
sg16
S'Homegrown Fantaseeds Northern Lights Breeders Pack'
p3639
sg18
S'United Kingdom'
p3640
sa(dp3641
g10
S'Variety Jones'
p3642
sg12
g58
sg14
V\u0e3f24.56
p3643
sg16
S'Homegrown Fantaseeds Jah Herer Breeders Pack'
p3644
sg18
S'United Kingdom'
p3645
sa(dp3646
g10
S'Variety Jones'
p3647
sg12
g58
sg14
V\u0e3f10.26
p3648
sg16
S'Homegrown Fantaseeds Indoor Mix Breeders Pack'
p3649
sg18
S'United Kingdom'
p3650
sa(dp3651
g10
S'Variety Jones'
p3652
sg12
g58
sg14
V\u0e3f16.79
p3653
sg16
S'Homegrown Fantaseeds Haze Breeders Pack'
p3654
sg18
S'United Kingdom'
p3655
sa(dp3656
g10
S'Variety Jones'
p3657
sg12
g58
sg14
V\u0e3f24.56
p3658
sg16
S'Homegrown Fantaseeds Kamimist Breeders Pack'
p3659
sg18
S'United Kingdom'
p3660
sa(dp3661
g10
S'Variety Jones'
p3662
sg12
g58
sg14
V\u0e3f14.30
p3663
sg16
S'Homegrown Fantaseeds Mango Breeders Pack'
p3664
sg18
S'United Kingdom'
p3665
sa(dp3666
g10
S'Variety Jones'
p3667
sg12
g58
sg14
V\u0e3f12.43
p3668
sg16
S'Homegrown Fantaseeds Master Kush Breeders Pack'
p3669
sg18
S'United Kingdom'
p3670
sa(dp3671
g10
S'Variety Jones'
p3672
sg12
g58
sg14
V\u0e3f16.79
p3673
sg16
S'High Quality Ghandi Breeders Pack'
p3674
sg18
S'United Kingdom'
p3675
sa(dp3676
g10
S'Variety Jones'
p3677
sg12
g58
sg14
V\u0e3f29.53
p3678
sg16
S'Homegrown Fantaseeds Blue Pearl Breeders Pack'
p3679
sg18
S'United Kingdom'
p3680
sa(dp3681
g10
S'Variety Jones'
p3682
sg12
g58
sg14
V\u0e3f27.05
p3683
sg16
S'Dutch Passion Strawberry Cough Breeders Pack'
p3684
sg18
S'United Kingdom'
p3685
sa(dp3686
g10
S'Variety Jones'
p3687
sg12
g58
sg14
V\u0e3f7.77
p3688
sg16
S'Nirvana Seeds Top 44 Breeders Pack'
p3689
sg18
S'United Kingdom'
p3690
sa(dp3691
g10
S'Variety Jones'
p3692
sg12
g58
sg14
V\u0e3f30.77
p3693
sg16
S'ORIGINAL Positronics Misty Breeders Pack'
p3694
sg18
S'United Kingdom'
p3695
sa(dp3696
g10
S'Variety Jones'
p3697
sg12
g58
sg14
V\u0e3f30.77
p3698
sg16
S'ORIGINAL Positronics Four Way Breeders Pack'
p3699
sg18
S'United Kingdom'
p3700
sa(dp3701
g10
S'rusty'
p3702
sg12
S'100'
p3703
sg14
V\u0e3f52.22
p3704
sg16
S'Purple Kush seeds'
p3705
sg18
S'United States of America'
p3706
sa(dp3707
g10
S'Variety Jones'
p3708
sg12
g58
sg14
V\u0e3f30.77
p3709
sg16
S'ORIGINAL Positronics Hindu Kush Breeders Pack'
p3710
sg18
S'United Kingdom'
p3711
sa(dp3712
g10
S'Variety Jones'
p3713
sg12
g58
sg14
V\u0e3f19.27
p3714
sg16
S'High Quality Early Girl Breeders Pack'
p3715
sg18
S'United Kingdom'
p3716
sa(dp3717
g10
S'Variety Jones'
p3718
sg12
g58
sg14
V\u0e3f7.77
p3719
sg16
S'Nirvana Seeds Super Skunk Breeders Pack'
p3720
sg18
S'United Kingdom'
p3721
sa(dp3722
g10
S'Variety Jones'
p3723
sg12
g58
sg14
V\u0e3f7.77
p3724
sg16
S'Nirvana Seeds Papaya Breeders Pack'
p3725
sg18
S'United Kingdom'
p3726
sa(dp3727
g10
S'Variety Jones'
p3728
sg12
g58
sg14
V\u0e3f14.30
p3729
sg16
S"High Quality Bob Marley's Best Breeders Pack"
p3730
sg18
S'United Kingdom'
p3731
sa(dp3732
g10
S'Variety Jones'
p3733
sg12
g58
sg14
V\u0e3f7.77
p3734
sg16
S'Nirvana Seeds Northern Light X Shiva Breeders Pack'
p3735
sg18
S'United Kingdom'
p3736
sa(dp3737
g10
S'Variety Jones'
p3738
sg12
g58
sg14
V\u0e3f16.79
p3739
sg16
S'High Quality Durban Poison Breeders Pack'
p3740
sg18
S'United Kingdom'
p3741
sa(dp3742
g10
S'Variety Jones'
p3743
sg12
g58
sg14
V\u0e3f7.77
p3744
sg16
S'Nirvana Seeds Pure Power Plant Breeders Pack'
p3745
sg18
S'United Kingdom'
p3746
sa(dp3747
g10
S'vicious86'
p3748
sg12
S'100'
p3749
sg14
V\u0e3f9.15
p3750
sg16
S'20 Master Kush Marijuana Seeds !!!'
p3751
sg18
S'US  '
p3752
sa(dp3753
g10
S'Variety Jones'
p3754
sg12
g58
sg14
V\u0e3f24.56
p3755
sg16
S'Chimera Seeds Sweetest Sativa Breeders Pack'
p3756
sg18
S'United Kingdom'
p3757
sa(dp3758
g10
S'Variety Jones'
p3759
sg12
g58
sg14
V\u0e3f7.77
p3760
sg16
S'Nirvana Seeds Swazi Breeders Pack'
p3761
sg18
S'United Kingdom'
p3762
sa(dp3763
g10
S'CannabisCure'
p3764
sg12
S'100'
p3765
sg14
V\u0e3f4.21
p3766
sg16
S'10  "Top44"  Seeds'
p3767
sg18
S'Germany'
p3768
sa(dp3769
g10
S'vicious86'
p3770
sg12
S'100'
p3771
sg14
V\u0e3f18.78
p3772
sg16
S'50 Master Kush Seeds !!!'
p3773
sg18
S'undeclared'
p3774
sa(dp3775
g10
S'happyhippy'
p3776
sg12
g58
sg14
V\u0e3f17.16
p3777
sg16
S'10 Regular Auto-Flowering AK 47 Cannabis Seeds'
p3778
sg18
S'United Kingdom'
p3779
sa(dp3780
g10
S'ExchangeService'
p3781
sg12
S'98'
p3782
sg14
V\u0e3f15.05
p3783
sg16
S'3 Feminised Shiva Skunk Kera Seeds'
p3784
sg18
S'nl'
p3785
sa(dp3786
g10
S'ExchangeService'
p3787
sg12
S'98'
p3788
sg14
V\u0e3f18.80
p3789
sg16
S'3 Feminised Powerplant Kera Seeds'
p3790
sg18
S'NL'
p3791
sa(dp3792
g10
S'Variety Jones'
p3793
sg12
g58
sg14
V\u0e3f7.77
p3794
sg16
S'Nirvana Seeds Jock Horror Breeders Pack'
p3795
sg18
S'United Kingdom'
p3796
sa(dp3797
g10
S'Variety Jones'
p3798
sg12
g58
sg14
V\u0e3f16.17
p3799
sg16
S'Sagarmatha Seeds Early Riser Breeders Pack'
p3800
sg18
S'United Kingdom'
p3801
sa(dp3802
g10
S'Variety Jones'
p3803
sg12
g58
sg14
V\u0e3f30.77
p3804
sg16
S'ORIGINAL Positronics Posi Star Breeders Pack'
p3805
sg18
S'United Kingdom'
p3806
sa(dp3807
g10
S'Variety Jones'
p3808
sg12
g58
sg14
V\u0e3f30.77
p3809
sg16
S'ORIGINAL Positronics Old Ed Breeders Pack'
p3810
sg18
S'United Kingdom'
p3811
sa(dp3812
g10
S'Variety Jones'
p3813
sg12
g58
sg14
V\u0e3f36.68
p3814
sg16
S'Sagarmatha Seeds Bubbleberry Breeders Pack'
p3815
sg18
S'United Kingdom'
p3816
sa(dp3817
g10
S'Variety Jones'
p3818
sg12
g58
sg14
V\u0e3f19.27
p3819
sg16
S'Sagarmatha Seeds Diamond Head Breeders Pack'
p3820
sg18
S'United Kingdom'
p3821
sa(dp3822
g10
S'Variety Jones'
p3823
sg12
g58
sg14
V\u0e3f7.77
p3824
sg16
S'Nirvana Seeds Maroc X Afghani Breeders Pack'
p3825
sg18
S'United Kingdom'
p3826
sa(dp3827
g10
S'Variety Jones'
p3828
sg12
g58
sg14
V\u0e3f23.63
p3829
sg16
S'TH Seeds Chocolate Chunk Breeders Pack'
p3830
sg18
S'United Kingdom'
p3831
sa(dp3832
g10
S'Variety Jones'
p3833
sg12
g58
sg14
V\u0e3f7.77
p3834
sg16
S'Nirvana Seeds KC 33 X Master Kush Breeders Pack'
p3835
sg18
S'United Kingdom'
p3836
sa(dp3837
g10
S'Variety Jones'
p3838
sg12
g58
sg14
V\u0e3f7.77
p3839
sg16
S'Nirvana Seeds Hawaii Maui Wowie Breeders Pack'
p3840
sg18
S'United Kingdom'
p3841
sa(dp3842
g10
S'Variety Jones'
p3843
sg12
g58
sg14
V\u0e3f19.27
p3844
sg16
S'TH Seeds Akorn (a.k.a. Snowbud) Breeders Pack'
p3845
sg18
S'United Kingdom'
p3846
sa(dp3847
g10
S'Variety Jones'
p3848
sg12
g58
sg14
V\u0e3f20.83
p3849
sg16
VBlack Label Ol 47 Breeders Pack
p3850
sg18
S'United Kingdom'
p3851
sa(dp3852
g10
S'Variety Jones'
p3853
sg12
g58
sg14
V\u0e3f7.77
p3854
sg16
S'Nirvana Seeds Hawaii X Skunk #1 Breeders Pack'
p3855
sg18
S'United Kingdom'
p3856
sa(dp3857
g10
S'Variety Jones'
p3858
sg12
g58
sg14
V\u0e3f22.38
p3859
sg16
S'TH Seeds Big Fatty XXL Breeders Pack'
p3860
sg18
S'United Kingdom'
p3861
sa(dp3862
g10
S'Variety Jones'
p3863
sg12
g58
sg14
V\u0e3f7.77
p3864
sg16
S'Nirvana Seeds Haze Breeders Pack'
p3865
sg18
S'United Kingdom'
p3866
sa(dp3867
g10
S'Variety Jones'
p3868
sg12
g58
sg14
V\u0e3f22.38
p3869
sg16
S'TH Seeds Bubblegum Breeders Pack'
p3870
sg18
S'United Kingdom'
p3871
sa(dp3872
g10
S'Variety Jones'
p3873
sg12
g58
sg14
V\u0e3f7.77
p3874
sg16
S'Nirvana Seeds Master Kush Breeders Pack'
p3875
sg18
S'United Kingdom'
p3876
sa(dp3877
g10
S'Variety Jones'
p3878
sg12
g58
sg14
V\u0e3f7.77
p3879
sg16
S'Nirvana Seeds Hollands Hope Breeders Pack'
p3880
sg18
S'United Kingdom'
p3881
sa(dp3882
g10
S'Variety Jones'
p3883
sg12
g58
sg14
V\u0e3f7.77
p3884
sg16
S'Nirvana Seeds Hindu Kush Breeders Pack'
p3885
sg18
S'United Kingdom'
p3886
sa(dp3887
g10
S'Variety Jones'
p3888
sg12
g58
sg14
V\u0e3f7.77
p3889
sg16
S'Nirvana Seeds Haze 19 X Skunk Breeders Pack'
p3890
sg18
S'United Kingdom'
p3891
sa(dp3892
g10
S'Variety Jones'
p3893
sg12
g58
sg14
V\u0e3f7.77
p3894
sg16
S'Nirvana Seeds Indoor Mix Breeders Pack'
p3895
sg18
S'United Kingdom'
p3896
sa(dp3897
g10
S'Variety Jones'
p3898
sg12
g58
sg14
V\u0e3f14.30
p3899
sg16
S'Flying Dutchmen Thai Tanic Breeders Pack'
p3900
sg18
S'United Kingdom'
p3901
sa(dp3902
g10
S'Variety Jones'
p3903
sg12
g58
sg14
V\u0e3f19.27
p3904
sg16
S'Flying Dutchmen Mixed Sativa Divas Breeders Pack'
p3905
sg18
S'United Kingdom'
p3906
sa(dp3907
g10
S'Variety Jones'
p3908
sg12
g58
sg14
V\u0e3f11.81
p3909
sg16
S'High Quality Afghani Hindu Kush Breeders Pack'
p3910
sg18
S'United Kingdom'
p3911
sa(dp3912
g10
S'Variety Jones'
p3913
sg12
g58
sg14
V\u0e3f23.63
p3914
sg16
S'Flying Dutchmen Haze Mist Breeders Pack'
p3915
sg18
S'United Kingdom'
p3916
sa(dp3917
g10
S'Variety Jones'
p3918
sg12
g58
sg14
V\u0e3f22.38
p3919
sg16
S'Paradise Seeds Swiss Bliss Breeders Pack'
p3920
sg18
S'United Kingdom'
p3921
sa(dp3922
g10
S'Variety Jones'
p3923
sg12
g58
sg14
V\u0e3f12.43
p3924
sg16
S'Flying Dutchmen Kerala Krush Breeders Pack'
p3925
sg18
S'United Kingdom'
p3926
sa(dp3927
g10
S'Variety Jones'
p3928
sg12
g58
sg14
V\u0e3f31.40
p3929
sg16
S'Flying Dutchmen Original Haze Breeders Pack'
p3930
sg18
S'United Kingdom'
p3931
sa(dp3932
g10
S'Variety Jones'
p3933
sg12
g58
sg14
V\u0e3f13.68
p3934
sg16
S'Dutch Passion Master Kush Breeders Pack'
p3935
sg18
S'United Kingdom'
p3936
sa(dp3937
g10
S'Variety Jones'
p3938
sg12
g58
sg14
V\u0e3f36.68
p3939
sg16
S'Soma G13 Collection G13 Haze X Lavender Pack'
p3940
sg18
S'United Kingdom'
p3941
sa(dp3942
g10
S'Variety Jones'
p3943
sg12
g58
sg14
V\u0e3f36.68
p3944
sg16
S'Soma G13 Collection G13 Haze X Somango Pack'
p3945
sg18
S'United Kingdom'
p3946
sa(dp3947
g10
S'Variety Jones'
p3948
sg12
g58
sg14
V\u0e3f36.68
p3949
sg16
S'Soma G13 Collection G13 Haze X White Light Pack'
p3950
sg18
S'United Kingdom'
p3951
sa(dp3952
g10
S'Variety Jones'
p3953
sg12
g58
sg14
V\u0e3f36.68
p3954
sg16
S'Soma G13 Collection G13 Haze X Somativa Pack'
p3955
sg18
S'United Kingdom'
p3956
sa(dp3957
g10
S'Variety Jones'
p3958
sg12
g58
sg14
V\u0e3f36.68
p3959
sg16
S'Soma G13 Collection G13 Haze X Free Tibet Pack'
p3960
sg18
S'United Kingdom'
p3961
sa(dp3962
g10
S'Variety Jones'
p3963
sg12
g58
sg14
V\u0e3f21.14
p3964
sg16
S'Dutch Passion Dreamweaver Breeders Pack'
p3965
sg18
S'United Kingdom'
p3966
sa(dp3967
g10
S'Variety Jones'
p3968
sg12
g58
sg14
V\u0e3f27.05
p3969
sg16
S'Dutch Passion FEMINISED Voodoo Breeders Pack'
p3970
sg18
S'United Kingdom'
p3971
sa(dp3972
g10
S'Variety Jones'
p3973
sg12
g58
sg14
V\u0e3f36.68
p3974
sg16
S'Soma G13 Collection G13 Haze X Haze Heaven Pack'
p3975
sg18
S'United Kingdom'
p3976
sa(dp3977
g10
S'Variety Jones'
p3978
sg12
g58
sg14
V\u0e3f24.56
p3979
sg16
S'Dutch Passion Delta 9 Breeders Pack'
p3980
sg18
S'United Kingdom'
p3981
sa(dp3982
g10
S'Variety Jones'
p3983
sg12
g58
sg14
V\u0e3f11.81
p3984
sg16
S'High Quality Original Highway Delight Breeder Pack'
p3985
sg18
S'United Kingdom'
p3986
sa(dp3987
g10
S'Variety Jones'
p3988
sg12
g58
sg14
V\u0e3f36.68
p3989
sg16
S'Soma G13 Collection G13 Haze X White Willow Pack'
p3990
sg18
S'United Kingdom'
p3991
sa(dp3992
g10
S'Variety Jones'
p3993
sg12
g58
sg14
V\u0e3f36.68
p3994
sg16
S'Soma G13 Collection G13 Haze X Reclining Buddha Pk'
p3995
sg18
S'United Kingdom'
p3996
sa(dp3997
g10
S'Variety Jones'
p3998
sg12
g58
sg14
V\u0e3f29.53
p3999
sg16
S'Magus Genetics Exile Breeders Pack'
p4000
sg18
S'United Kingdom'
p4001
sa(dp4002
g10
S'Variety Jones'
p4003
sg12
g58
sg14
V\u0e3f19.27
p4004
sg16
S'Paradise Seeds Belladona Breeders Pack'
p4005
sg18
S'United Kingdom'
p4006
sa(dp4007
g10
S'Variety Jones'
p4008
sg12
g58
sg14
V\u0e3f17.72
p4009
sg16
S'Paradise Seeds Dutch Dragon Breeders Pack'
p4010
sg18
S'United Kingdom'
p4011
sa(dp4012
g10
S'Variety Jones'
p4013
sg12
g58
sg14
V\u0e3f29.53
p4014
sg16
S'Magus Genetics Double Dutch Breeders Pack'
p4015
sg18
S'United Kingdom'
p4016
sa(dp4017
g10
S'Variety Jones'
p4018
sg12
g58
sg14
V\u0e3f36.68
p4019
sg16
S'Soma G13 Collection G13 Haze X Buddhas Sister Pack'
p4020
sg18
S'United Kingdom'
p4021
sa(dp4022
g10
S'Variety Jones'
p4023
sg12
g58
sg14
V\u0e3f34.82
p4024
sg16
S'Serious Seeds Kali Mist Breeders Pack'
p4025
sg18
S'United Kingdom'
p4026
sa(dp4027
g10
S'Variety Jones'
p4028
sg12
g58
sg14
V\u0e3f34.82
p4029
sg16
S'Serious Seeds AK-47 Breeders Pack'
p4030
sg18
S'United Kingdom'
p4031
sa(dp4032
g10
S'Variety Jones'
p4033
sg12
g58
sg14
V\u0e3f29.53
p4034
sg16
S'Serious Seeds White Russian Breeders Pack'
p4035
sg18
S'United Kingdom'
p4036
sa(dp4037
g10
S'Variety Jones'
p4038
sg12
g58
sg14
V\u0e3f29.53
p4039
sg16
S'Serious Seeds Chronic Breeders Pack'
p4040
sg18
S'United Kingdom'
p4041
sa(dp4042
g10
S'Variety Jones'
p4043
sg12
g58
sg14
V\u0e3f16.79
p4044
sg16
S'High Quality White Rose Breeders Pack'
p4045
sg18
S'United Kingdom'
p4046
sa(dp4047
g10
S'Variety Jones'
p4048
sg12
g58
sg14
V\u0e3f31.71
p4049
sg16
S'Serious Seeds Bubblegum Breeders Pack'
p4050
sg18
S'United Kingdom'
p4051
sa(dp4052
g10
S'Variety Jones'
p4053
sg12
g58
sg14
V\u0e3f8.70
p4054
sg16
S'High Quality South India X Skunk Breeders Pack'
p4055
sg18
S'United Kingdom'
p4056
sa(dp4057
g10
S'Variety Jones'
p4058
sg12
g58
sg14
V\u0e3f16.79
p4059
sg16
S'High Quality Outsider Breeders Pack'
p4060
sg18
S'United Kingdom'
p4061
sa(dp4062
g10
S'Variety Jones'
p4063
sg12
g58
sg14
V\u0e3f36.68
p4064
sg16
S'Soma G13 Collection G13 Haze X Amethyst Bud Pack'
p4065
sg18
S'United Kingdom'
p4066
sa(dp4067
g10
S'Variety Jones'
p4068
sg12
g58
sg14
V\u0e3f30.77
p4069
sg16
S'TH Seeds Heavy Duty Fruity Breeders Pack'
p4070
sg18
S'United Kingdom'
p4071
sa(dp4072
g10
S'Variety Jones'
p4073
sg12
g58
sg14
V\u0e3f14.30
p4074
sg16
S'High Quality Skunk 3 X A2 Breeders Pack'
p4075
sg18
S'United Kingdom'
p4076
sa(dp4077
g10
S'Variety Jones'
p4078
sg12
g58
sg14
V\u0e3f16.79
p4079
sg16
S'Homegrown Fantaseeds Eclipse Breeders Pack'
p4080
sg18
S'United Kingdom'
p4081
sa(dp4082
g10
S'Variety Jones'
p4083
sg12
g58
sg14
V\u0e3f10.26
p4084
sg16
S'Homegrown Fantaseeds Early Girl Breeders Pack'
p4085
sg18
S'United Kingdom'
p4086
sa(dp4087
g10
S'Variety Jones'
p4088
sg12
g58
sg14
V\u0e3f16.79
p4089
sg16
S'Homegrown Fantaseeds Flash Back Breeders Pack'
p4090
sg18
S'United Kingdom'
p4091
sa(dp4092
g10
S'Variety Jones'
p4093
sg12
g58
sg14
V\u0e3f14.61
p4094
sg16
S'Dutch Passion Green Spirit Breeders Pack'
p4095
sg18
S'United Kingdom'
p4096
sa(dp4097
g10
S'Variety Jones'
p4098
sg12
g58
sg14
V\u0e3f14.30
p4099
sg16
S'Homegrown Fantaseeds Calif. Orange Breeders Pack'
p4100
sg18
S'United Kingdom'
p4101
sa(dp4102
g10
S'Variety Jones'
p4103
sg12
g58
sg14
V\u0e3f14.30
p4104
sg16
S'DNA Pure Landrace Afghan Breeders Pack (13 seeds)'
p4105
sg18
S'United Kingdom'
p4106
sa(dp4107
g10
S'Variety Jones'
p4108
sg12
g58
sg14
V\u0e3f12.43
p4109
sg16
S'DNA Reserva Connoisseurs Breeders Pack (13 seeds)'
p4110
sg18
S'United Kingdom'
p4111
sa(dp4112
g10
S'Variety Jones'
p4113
sg12
g58
sg14
V\u0e3f36.68
p4114
sg16
S'DNA Sharksbreath Breeders Pack (13 seeds)'
p4115
sg18
S'United Kingdom'
p4116
sa(dp4117
g10
S'Variety Jones'
p4118
sg12
g58
sg14
V\u0e3f24.56
p4119
sg16
S'DNA Sour Cream Breeders Pack (13 seeds)'
p4120
sg18
S'United Kingdom'
p4121
sa(dp4122
g10
S'Variety Jones'
p4123
sg12
g58
sg14
V\u0e3f20.83
p4124
sg16
S'Canna Biogen Sugarloaf Breeders Pack'
p4125
sg18
S'United Kingdom'
p4126
sa(dp4127
g10
S'Variety Jones'
p4128
sg12
g58
sg14
V\u0e3f16.17
p4129
sg16
S'Canna Biogen Sandstorm Breeders Pack'
p4130
sg18
S'United Kingdom'
p4131
sa(dp4132
g10
S'Variety Jones'
p4133
sg12
g58
sg14
V\u0e3f14.30
p4134
sg16
S'Canna Biogen Leshaze Breeders Pack'
p4135
sg18
S'United Kingdom'
p4136
sa(dp4137
g10
S'Variety Jones'
p4138
sg12
g58
sg14
V\u0e3f36.68
p4139
sg16
S'Canna Biogen Taskenti Breeders Pack'
p4140
sg18
S'United Kingdom'
p4141
sa(dp4142
g10
S'Variety Jones'
p4143
sg12
g58
sg14
V\u0e3f19.27
p4144
sg16
S'Female Seed Co. FEMINISED Maroc Breeders Pack'
p4145
sg18
S'United Kingdom'
p4146
sa(dp4147
g10
S'Variety Jones'
p4148
sg12
g58
sg14
V\u0e3f22.38
p4149
sg16
S'TH Seeds Kal-X Breeders Pack'
p4150
sg18
S'United Kingdom'
p4151
sa(dp4152
g10
S'Variety Jones'
p4153
sg12
g58
sg14
V\u0e3f16.79
p4154
sg16
S'Flying Dutchmen Fuma Con Dios Breeders Pack'
p4155
sg18
S'United Kingdom'
p4156
sa(dp4157
g10
S'Variety Jones'
p4158
sg12
g58
sg14
V\u0e3f14.30
p4159
sg16
S'Flying Dutchmen California Sunrise Breeders Pack'
p4160
sg18
S'United Kingdom'
p4161
sa(dp4162
g10
S'Variety Jones'
p4163
sg12
g58
sg14
V\u0e3f19.27
p4164
sg16
S'TH Seeds Mendicino Madness Breeders Pack'
p4165
sg18
S'United Kingdom'
p4166
sa(dp4167
g10
S'Variety Jones'
p4168
sg12
g58
sg14
V\u0e3f22.38
p4169
sg16
S'DNA Super Cannalope Breeder Pack (13 seeds)'
p4170
sg18
S'United Kingdom'
p4171
sa(dp4172
g10
S'Variety Jones'
p4173
sg12
g58
sg14
V\u0e3f24.56
p4174
sg16
S'TH Seeds Stinky Pinky Breeders Pack'
p4175
sg18
S'United Kingdom'
p4176
sa(dp4177
g10
S'Variety Jones'
p4178
sg12
g58
sg14
V\u0e3f24.56
p4179
sg16
S'DNA Sweet Haze Breeders Pack (13 seeds)'
p4180
sg18
S'United Kingdom'
p4181
sa(dp4182
g10
S'Variety Jones'
p4183
sg12
g58
sg14
V\u0e3f24.56
p4184
sg16
S'TH Seeds Puna Budder Breeders Pack'
p4185
sg18
S'United Kingdom'
p4186
sa(dp4187
g10
S'Variety Jones'
p4188
sg12
g58
sg14
V\u0e3f7.77
p4189
sg16
S'Nirvana Seeds Shiva Breeders Pack'
p4190
sg18
S'United Kingdom'
p4191
sa(dp4192
g10
S'Variety Jones'
p4193
sg12
g58
sg14
V\u0e3f30.77
p4194
sg16
S'TH Seeds Mr. Bubble Breeders Pack'
p4195
sg18
S'United Kingdom'
p4196
sa(dp4197
g10
S'Variety Jones'
p4198
sg12
g58
sg14
V\u0e3f24.56
p4199
sg16
S'DNA Lemon Skunk Breeders Pack (13 seeds)'
p4200
sg18
S'United Kingdom'
p4201
sa(dp4202
g10
S'Variety Jones'
p4203
sg12
g58
sg14
V\u0e3f36.68
p4204
sg16
S'DNA Kushberry Breeders Pack (13 seeds)'
p4205
sg18
S'United Kingdom'
p4206
sa(dp4207
g10
S'Variety Jones'
p4208
sg12
g58
sg14
V\u0e3f24.56
p4209
sg16
S'Chimera Mental Floss Breeders Pack'
p4210
sg18
S'United Kingdom'
p4211
sa(dp4212
g10
S'Variety Jones'
p4213
sg12
g58
sg14
V\u0e3f19.27
p4214
sg16
S'Chimera Sassy Frass Breeders Pack'
p4215
sg18
S'United Kingdom'
p4216
sa(dp4217
g10
S'Variety Jones'
p4218
sg12
g58
sg14
V\u0e3f24.56
p4219
sg16
S'Chimera Seeds Schnazzleberry #2 Breeders Pack'
p4220
sg18
S'United Kingdom'
p4221
sa(dp4222
g10
S'Variety Jones'
p4223
sg12
g58
sg14
V\u0e3f19.27
p4224
sg16
S'Canna Biogen Caribe Breeders Pack'
p4225
sg18
S'United Kingdom'
p4226
sa(dp4227
g10
S'Variety Jones'
p4228
sg12
g58
sg14
V\u0e3f39.48
p4229
sg16
S'Dutch Passion FEMINISED Dolce Vita Breeders Pack'
p4230
sg18
S'United Kingdom'
p4231
sa(dp4232
g10
S'Variety Jones'
p4233
sg12
g58
sg14
V\u0e3f31.71
p4234
sg16
S'DNA L. A. Confidential Breeders Pack (13 seeds)'
p4235
sg18
S'United Kingdom'
p4236
sa(dp4237
g10
S'Variety Jones'
p4238
sg12
g58
sg14
V\u0e3f29.53
p4239
sg16
S'Sagarmatha Seeds Mangolian Indica Breeders Pack'
p4240
sg18
S'United Kingdom'
p4241
sa(dp4242
g10
S'Variety Jones'
p4243
sg12
g58
sg14
V\u0e3f36.68
p4244
sg16
S'DNA Chocolope / D Line Breeders Pack (13 seeds)'
p4245
sg18
S'United Kingdom'
p4246
sa(dp4247
g10
S'Variety Jones'
p4248
sg12
g58
sg14
V\u0e3f29.53
p4249
sg16
S'DNA Connie Chung Breeders Pack (13 seeds)'
p4250
sg18
S'United Kingdom'
p4251
sa(dp4252
g10
S'Variety Jones'
p4253
sg12
g58
sg14
V\u0e3f24.56
p4254
sg16
S'DNA Reserva Cole Train Breeders Pack (13 seeds)'
p4255
sg18
S'United Kingdom'
p4256
sa(dp4257
g10
S'Variety Jones'
p4258
sg12
g58
sg14
V\u0e3f29.53
p4259
sg16
S'DNA Cannalope Haze Breeders Pack (13 seeds)'
p4260
sg18
S'United Kingdom'
p4261
sa(dp4262
g10
S'Variety Jones'
p4263
sg12
g58
sg14
V\u0e3f22.38
p4264
sg16
S'DNA Anunnaki Breeders Pack (13 seeds)'
p4265
sg18
S'United Kingdom'
p4266
sa(dp4267
g10
S'Variety Jones'
p4268
sg12
g58
sg14
V\u0e3f22.38
p4269
sg16
S'DNA C 13 Haze Breeders Pack (13 seeds)'
p4270
sg18
S'United Kingdom'
p4271
sa(dp4272
g10
S'Variety Jones'
p4273
sg12
g58
sg14
V\u0e3f24.56
p4274
sg16
S'DNA Cannadential Breeders Pack (13 seeds)'
p4275
sg18
S'United Kingdom'
p4276
sa(dp4277
g10
S'Variety Jones'
p4278
sg12
g58
sg14
V\u0e3f16.79
p4279
sg16
S'Sagarmatha Seeds Gardeners Choice Breeders Pack'
p4280
sg18
S'United Kingdom'
p4281
sa(dp4282
g10
S'Variety Jones'
p4283
sg12
g58
sg14
V\u0e3f7.77
p4284
sg16
S'Nirvana Seeds Durban Poison Breeders Pack'
p4285
sg18
S'United Kingdom'
p4286
sa(dp4287
g10
S'Variety Jones'
p4288
sg12
g58
sg14
V\u0e3f22.38
p4289
sg16
S'Female Seed Co. FEMINISED Nevilles Haze Breeder Pk'
p4290
sg18
S'United Kingdom'
p4291
sa(dp4292
g10
S'Variety Jones'
p4293
sg12
g58
sg14
V\u0e3f36.68
p4294
sg16
S'Sagarmatha Seeds Special K Breeders Pack'
p4295
sg18
S'United Kingdom'
p4296
sa(dp4297
g10
S'Variety Jones'
p4298
sg12
g58
sg14
V\u0e3f27.05
p4299
sg16
S'Sagarmatha Seeds Slyder Breeders Pack'
p4300
sg18
S'United Kingdom'
p4301
sa(dp4302
g10
S'Variety Jones'
p4303
sg12
g58
sg14
V\u0e3f31.71
p4304
sg16
S'Sagarmatha Seeds Blueberry Bud Breeders Pack'
p4305
sg18
S'United Kingdom'
p4306
sa(dp4307
g10
S'Variety Jones'
p4308
sg12
g58
sg14
V\u0e3f36.68
p4309
sg16
S'Sagarmatha Seeds Stonehedge Breeders Pack'
p4310
sg18
S'United Kingdom'
p4311
sa(dp4312
g10
S'Variety Jones'
p4313
sg12
g58
sg14
V\u0e3f30.77
p4314
sg16
S'ORIGINAL Positronics Shiva X Afghani Breeders Pack'
p4315
sg18
S'United Kingdom'
p4316
sa(dp4317
g10
S'Variety Jones'
p4318
sg12
g58
sg14
V\u0e3f24.56
p4319
sg16
S'Sagarmatha Seeds Peak 19 Breeders Pack'
p4320
sg18
S'United Kingdom'
p4321
sa(dp4322
g10
S'Variety Jones'
p4323
sg12
g58
sg14
V\u0e3f41.04
p4324
sg16
S'Sagarmatha Seeds Matanuska Tundra Breeders Pack'
p4325
sg18
S'United Kingdom'
p4326
sa(dp4327
g10
S'Variety Jones'
p4328
sg12
g58
sg14
V\u0e3f7.77
p4329
sg16
S'Nirvana Seeds Early Bud Breeders Pack'
p4330
sg18
S'United Kingdom'
p4331
sa(dp4332
g10
S'Variety Jones'
p4333
sg12
g58
sg14
V\u0e3f16.79
p4334
sg16
S'Female Seed Co. FEMINISED Easy Sativa Breeder Pack'
p4335
sg18
S'United Kingdom'
p4336
sa(dp4337
g10
S'Variety Jones'
p4338
sg12
g58
sg14
V\u0e3f31.71
p4339
sg16
S'Dutch Passion FEMINISED Durban Poison Breeder Pac'
p4340
sg18
S'United Kingdom'
p4341
sa(dp4342
g10
S'Variety Jones'
p4343
sg12
g58
sg14
V\u0e3f19.27
p4344
sg16
S'Chimera C Plus Breeders Pack'
p4345
sg18
S'United Kingdom'
p4346
sa(dp4347
g10
S'Variety Jones'
p4348
sg12
g58
sg14
V\u0e3f19.27
p4349
sg16
S'Chimera C4 Breeders Pack'
p4350
sg18
S'United Kingdom'
p4351
sa(dp4352
g10
S'Variety Jones'
p4353
sg12
g58
sg14
V\u0e3f10.26
p4354
sg16
S'Chimera Breeders Ultimix Breeders Pack'
p4355
sg18
S'United Kingdom'
p4356
sa(dp4357
g10
S'Variety Jones'
p4358
sg12
g58
sg14
V\u0e3f30.77
p4359
sg16
S'Chimera Calizahr Breeders Pack'
p4360
sg18
S'United Kingdom'
p4361
sa(dp4362
g10
S'Variety Jones'
p4363
sg12
g58
sg14
V\u0e3f19.27
p4364
sg16
S'Chimera Fighting Buddha Breeders Pack'
p4365
sg18
S'United Kingdom'
p4366
sa(dp4367
g10
S'Variety Jones'
p4368
sg12
g58
sg14
V\u0e3f36.68
p4369
sg16
S'Dutch Passion FEMINISED Ultra Skunk Breeders Pack'
p4370
sg18
S'United Kingdom'
p4371
sa(dp4372
g10
S'Variety Jones'
p4373
sg12
g58
sg14
V\u0e3f46.32
p4374
sg16
S'Dutch Passion FEMINISED White Widow Breeders Pack'
p4375
sg18
S'United Kingdom'
p4376
sa(dp4377
g10
S'Variety Jones'
p4378
sg12
g58
sg14
V\u0e3f29.53
p4379
sg16
S'Dutch Passion FEMINISED Trance Breeders Pack'
p4380
sg18
S'United Kingdom'
p4381
sa(dp4382
g10
S'Variety Jones'
p4383
sg12
g58
sg14
V\u0e3f42.28
p4384
sg16
S'Dutch Passion FEMINISED Flo Breeders Pack'
p4385
sg18
S'United Kingdom'
p4386
sa(dp4387
g10
S'Variety Jones'
p4388
sg12
g58
sg14
V\u0e3f42.28
p4389
sg16
S'Dutch Passion FEMINISED Euforia Breeders Pack'
p4390
sg18
S'United Kingdom'
p4391
sa(dp4392
g10
S'Variety Jones'
p4393
sg12
g58
sg14
V\u0e3f39.48
p4394
sg16
S'Dutch Passion FEMINISED Oasis Breeders Pack'
p4395
sg18
S'United Kingdom'
p4396
sa(dp4397
g10
S'Variety Jones'
p4398
sg12
g58
sg14
V\u0e3f33.57
p4399
sg16
S'Dutch Passion FEMINISED Sacra Frasca Breeders Pack'
p4400
sg18
S'United Kingdom'
p4401
sa(dp4402
g10
S'Variety Jones'
p4403
sg12
g58
sg14
V\u0e3f46.32
p4404
sg16
S'Dutch Passion FEMINISED Skywalker Breeders Pack'
p4405
sg18
S'United Kingdom'
p4406
sa(dp4407
g10
S'Variety Jones'
p4408
sg12
g58
sg14
V\u0e3f23.63
p4409
sg16
S'Dutch Passion FEMINISED Purple #1 Breeders Pack'
p4410
sg18
S'United Kingdom'
p4411
sa(dp4412
g10
S'Variety Jones'
p4413
sg12
g58
sg14
V\u0e3f24.56
p4414
sg16
S'Chimera B.C. Grapefruit X Blueberry Breeders Pack'
p4415
sg18
S'United Kingdom'
p4416
sa(dp4417
g10
S'Variety Jones'
p4418
sg12
g58
sg14
V\u0e3f24.56
p4419
sg16
S'Chimera Highland Mexican X Blueberry Breeders Pack'
p4420
sg18
S'United Kingdom'
p4421
sa(dp4422
g10
S'Variety Jones'
p4423
sg12
g58
sg14
V\u0e3f27.05
p4424
sg16
S'Female Seed Co. FEMINISED Cinnamon Breeders Pack'
p4425
sg18
S'United Kingdom'
p4426
sa(dp4427
g10
S'Variety Jones'
p4428
sg12
g58
sg14
V\u0e3f19.27
p4429
sg16
S'Female Seed Co. FEMINISED Easy Bud Breeders Pack'
p4430
sg18
S'United Kingdom'
p4431
sa(dp4432
g10
S'Variety Jones'
p4433
sg12
g58
sg14
V\u0e3f12.43
p4434
sg16
S'TH Seeds Skunk XXX Breeders Pack'
p4435
sg18
S'United Kingdom'
p4436
sa(dp4437
g10
S'Variety Jones'
p4438
sg12
g58
sg14
V\u0e3f42.28
p4439
sg16
S'TH Seeds The H.O.G. Breeders Pack'
p4440
sg18
S'United Kingdom'
p4441
sa(dp4442
g10
S'Variety Jones'
p4443
sg12
g58
sg14
V\u0e3f14.30
p4444
sg16
S'Canna Biogen Deluxe Mix Breeders Pack'
p4445
sg18
S'United Kingdom'
p4446
sa(dp4447
g10
S'Variety Jones'
p4448
sg12
g58
sg14
V\u0e3f29.53
p4449
sg16
S'DNA Genetics Recon Breeders pack (13 seeds)'
p4450
sg18
S'United Kingdom'
p4451
sa(dp4452
g10
S'Variety Jones'
p4453
sg12
g58
sg14
V\u0e3f7.77
p4454
sg16
S'Nirvana Seeds Mixed Sativas Breeder Pack'
p4455
sg18
S'United Kingdom'
p4456
sa(dp4457
g10
S'Variety Jones'
p4458
sg12
g58
sg14
V\u0e3f22.07
p4459
sg16
S'Flying Dutchmen Swazi Safari Breeders Pack'
p4460
sg18
S'United Kingdom'
p4461
sa(dp4462
g10
S'Variety Jones'
p4463
sg12
g58
sg14
V\u0e3f7.77
p4464
sg16
S'Nirvana Seeds Early Girl Breeders Pack'
p4465
sg18
S'United Kingdom'
p4466
sa(dp4467
g10
S'Variety Jones'
p4468
sg12
g58
sg14
V\u0e3f7.77
p4469
sg16
S'Nirvana Seeds Misty Breeders pack'
p4470
sg18
S'United Kingdom'
p4471
sa(dp4472
g10
S'Variety Jones'
p4473
sg12
g58
sg14
V\u0e3f24.56
p4474
sg16
S'Flying Dutchmen Titans Haze Breeders Pack'
p4475
sg18
S'United Kingdom'
p4476
sa(dp4477
g10
S'Variety Jones'
p4478
sg12
g58
sg14
V\u0e3f7.77
p4479
sg16
S'Nirvana Seeds New Purple Power Breeders Pack'
p4480
sg18
S'United Kingdom'
p4481
sa(dp4482
g10
S'Variety Jones'
p4483
sg12
g58
sg14
V\u0e3f22.07
p4484
sg16
S'Flying Dutchmen Pineapple Punch Breeders Pack'
p4485
sg18
S'United Kingdom'
p4486
sa(dp4487
g10
S'Variety Jones'
p4488
sg12
g58
sg14
V\u0e3f16.79
p4489
sg16
S'TH Seeds Honeymoon (20 seeds!) Breeders Pack'
p4490
sg18
S'United Kingdom'
p4491
sa(dp4492
g10
S'Variety Jones'
p4493
sg12
g58
sg14
V\u0e3f22.07
p4494
sg16
S'Flying Dutchmen The Real McCoy Breeders Pack'
p4495
sg18
S'United Kingdom'
p4496
sa(dp4497
g10
S'Variety Jones'
p4498
sg12
g58
sg14
V\u0e3f36.68
p4499
sg16
S'Sagarmatha Seeds Blue Thunder Breeders Pack'
p4500
sg18
S'United Kingdom'
p4501
sa(dp4502
g10
S'Variety Jones'
p4503
sg12
g58
sg14
V\u0e3f16.79
p4504
sg16
S'Sagarmatha Seeds Flow Breeders Pack'
p4505
sg18
S'United Kingdom'
p4506
sa(dp4507
g10
S'Variety Jones'
p4508
sg12
g58
sg14
V\u0e3f26.74
p4509
sg16
S'Black Label Jack Herer Breeders Pack'
p4510
sg18
S'United Kingdom'
p4511
sa(dp4512
g10
S'Variety Jones'
p4513
sg12
g58
sg14
V\u0e3f14.30
p4514
sg16
S'Black Label Hollands Hope Breeders Pack'
p4515
sg18
S'United Kingdom'
p4516
sa(dp4517
g10
S'Variety Jones'
p4518
sg12
g58
sg14
V\u0e3f8.70
p4519
sg16
S'Black Label Master Kush Breeders Pack'
p4520
sg18
S'United Kingdom'
p4521
sa(dp4522
g10
S'Variety Jones'
p4523
sg12
g58
sg14
V\u0e3f33.57
p4524
sg16
S"Black Label Neville's Haze Breeders Pack"
p4525
sg18
S'United Kingdom'
p4526
sa(dp4527
g10
S'Variety Jones'
p4528
sg12
g58
sg14
V\u0e3f20.83
p4529
sg16
S'Black Label Sensi Star Breeders Pack'
p4530
sg18
S'United Kingdom'
p4531
sa(dp4532
g10
S'Variety Jones'
p4533
sg12
g58
sg14
V\u0e3f16.79
p4534
sg16
S'Female Seed Co. FEMINISED Skunk Special Breeder Pk'
p4535
sg18
S'United Kingdom'
p4536
sa(dp4537
g10
S'Variety Jones'
p4538
sg12
g58
sg14
V\u0e3f16.79
p4539
sg16
S'Female Seed Co. FEMINISED Purple Power Breeders Pk'
p4540
sg18
S'United Kingdom'
p4541
sa(dp4542
g10
S'Variety Jones'
p4543
sg12
g58
sg14
V\u0e3f22.07
p4544
sg16
S'Black Label Blue Berries Breeders Pack'
p4545
sg18
S'United Kingdom'
p4546
sa(dp4547
g10
S'Variety Jones'
p4548
sg12
g58
sg14
V\u0e3f30.77
p4549
sg16
S'ORIGINAL Positronics Skunk Special Breeders Pack'
p4550
sg18
S'United Kingdom'
p4551
sa(dp4552
g10
S'Variety Jones'
p4553
sg12
g58
sg14
V\u0e3f31.71
p4554
sg16
S'Sagarmatha Seeds Yumbolt Breeders Pack'
p4555
sg18
S'United Kingdom'
p4556
sa(dp4557
g10
S'Variety Jones'
p4558
sg12
g58
sg14
V\u0e3f30.77
p4559
sg16
S'ORIGINAL Positronics Soft Secrets Breeders Pack'
p4560
sg18
S'United Kingdom'
p4561
sa(dp4562
g10
S'Variety Jones'
p4563
sg12
g58
sg14
V\u0e3f7.77
p4564
sg16
S'Nirvana Seeds Chrystal Breeders Pack'
p4565
sg18
S'United Kingdom'
p4566
sa(dp4567
g10
S'Variety Jones'
p4568
sg12
g58
sg14
V\u0e3f7.77
p4569
sg16
S'Nirvana Seeds California Orange Bud Breeders Pack'
p4570
sg18
S'United Kingdom'
p4571
sa(dp4572
g10
S'Variety Jones'
p4573
sg12
g58
sg14
V\u0e3f7.77
p4574
sg16
S'Nirvana Seeds Big Bud Breeders Pack'
p4575
sg18
S'United Kingdom'
p4576
sa(dp4577
g10
S'Variety Jones'
p4578
sg12
g58
sg14
V\u0e3f13.06
p4579
sg16
S'Paradise Seeds Amsterdam Flame Breeders Pack'
p4580
sg18
S'United Kingdom'
p4581
sa(dp4582
g10
S'Variety Jones'
p4583
sg12
g58
sg14
V\u0e3f7.77
p4584
sg16
S'Nirvana Seeds B-52 Breeders Pack'
p4585
sg18
S'United Kingdom'
p4586
sa(dp4587
g10
S'Variety Jones'
p4588
sg12
g58
sg14
V\u0e3f31.71
p4589
sg16
S'Sagarmatha Seeds Wonderberry Breeders Pack'
p4590
sg18
S'United Kingdom'
p4591
sa(dp4592
g10
S'Variety Jones'
p4593
sg12
g58
sg14
V\u0e3f31.71
p4594
sg16
S'Sagarmatha Seeds Western Winds Breeders Pack'
p4595
sg18
S'United Kingdom'
p4596
sa(dp4597
g10
S'Variety Jones'
p4598
sg12
g58
sg14
V\u0e3f7.77
p4599
sg16
S'Nirvana Seeds Citral Breeders Pack'
p4600
sg18
S'United Kingdom'
p4601
sa(dp4602
g10
S'Variety Jones'
p4603
sg12
g58
sg14
V\u0e3f19.27
p4604
sg16
S'Homegrown Fantaseeds First Lady Breeders pack'
p4605
sg18
S'United Kingdom'
p4606
sa(dp4607
g10
S'Variety Jones'
p4608
sg12
g58
sg14
V\u0e3f30.77
p4609
sg16
S'ORIGINAL Positronics Shiva Breeders Pack'
p4610
sg18
S'United Kingdom'
p4611
sa(dp4612
g10
S'Variety Jones'
p4613
sg12
g58
sg14
V\u0e3f41.04
p4614
sg16
S'Sagarmatha Seeds Kwik Kali Breeders Pack'
p4615
sg18
S'United Kingdom'
p4616
sa(dp4617
g10
S'Variety Jones'
p4618
sg12
g58
sg14
V\u0e3f7.77
p4619
sg16
S'Nirvana Seeds Bubblelicious Breeders Pack'
p4620
sg18
S'United Kingdom'
p4621
sa(dp4622
g10
S'Variety Jones'
p4623
sg12
g58
sg14
V\u0e3f30.77
p4624
sg16
S'ORIGINAL Positronics Shalom Breeders Pack'
p4625
sg18
S'United Kingdom'
p4626
sa(dp4627
g10
S'Variety Jones'
p4628
sg12
g58
sg14
V\u0e3f7.77
p4629
sg16
S'Nirvana Seeds Skunk Special Breeders Pack'
p4630
sg18
S'United Kingdom'
p4631
sa(dp4632
g10
S'Variety Jones'
p4633
sg12
g58
sg14
V\u0e3f7.77
p4634
sg16
S'Nirvana Seeds Skunk Red Hair Breeders Pack'
p4635
sg18
S'United Kingdom'
p4636
sa(dp4637
g10
S'Variety Jones'
p4638
sg12
g58
sg14
V\u0e3f29.53
p4639
sg16
S'Homegrown Fantaseeds Armageddon Breeders Pack'
p4640
sg18
S'United Kingdom'
p4641
sa(dp4642
g10
S'Variety Jones'
p4643
sg12
g58
sg14
V\u0e3f30.77
p4644
sg16
S'ORIGINAL Positronics Citral X Thai Breeders Pack'
p4645
sg18
S'United Kingdom'
p4646
sa(dp4647
g10
S'Variety Jones'
p4648
sg12
g58
sg14
V\u0e3f19.27
p4649
sg16
S'Dutch Passion Twilight Breeders Pack'
p4650
sg18
S'United Kingdom'
p4651
sa(dp4652
g10
S'Variety Jones'
p4653
sg12
g58
sg14
V\u0e3f24.56
p4654
sg16
S'Dutch Passion Ultra Skunk Breeders Pack'
p4655
sg18
S'United Kingdom'
p4656
sa(dp4657
g10
S'Variety Jones'
p4658
sg12
g58
sg14
V\u0e3f14.30
p4659
sg16
S'Dutch Passion Trance Breeders Pack'
p4660
sg18
S'United Kingdom'
p4661
sa(dp4662
g10
S'Variety Jones'
p4663
sg12
g58
sg14
V\u0e3f36.68
p4664
sg16
S'Dutch Passion Skywalker Breeders Pack'
p4665
sg18
S'United Kingdom'
p4666
sa(dp4667
g10
S'Variety Jones'
p4668
sg12
g58
sg14
V\u0e3f16.79
p4669
sg16
S'Homegrown Fantaseeds Big Bud Breeders Pack'
p4670
sg18
S'United Kingdom'
p4671
sa(dp4672
g10
S'Variety Jones'
p4673
sg12
g58
sg14
V\u0e3f33.57
p4674
sg16
S'Dutch Passion Original Flo Breeders Pack'
p4675
sg18
S'United Kingdom'
p4676
sa(dp4677
g10
S'Variety Jones'
p4678
sg12
g58
sg14
V\u0e3f13.68
p4679
sg16
S'Dutch Passion Voodoo Breeders Pack'
p4680
sg18
S'United Kingdom'
p4681
sa(dp4682
g10
S'Variety Jones'
p4683
sg12
g58
sg14
V\u0e3f22.38
p4684
sg16
S'Homegrown Fantaseeds Australian Blue Breeders Pack'
p4685
sg18
S'United Kingdom'
p4686
sa(dp4687
g10
S'Variety Jones'
p4688
sg12
g58
sg14
V\u0e3f16.79
p4689
sg16
S'Homegrown Fantaseeds Skunk Special Breeders Pack'
p4690
sg18
S'United Kingdom'
p4691
sa(dp4692
g10
S'Variety Jones'
p4693
sg12
g58
sg14
V\u0e3f14.61
p4694
sg16
S'Paradise Seeds Sugar Babe Breeders Pack'
p4695
sg18
S'United Kingdom'
p4696
sa(dp4697
g10
S'Variety Jones'
p4698
sg12
g58
sg14
V\u0e3f18.34
p4699
sg16
S'Paradise Seeds Sativa Spirit Breeders Pack'
p4700
sg18
S'United Kingdom'
p4701
sa(dp4702
g10
S'Variety Jones'
p4703
sg12
g58
sg14
V\u0e3f21.45
p4704
sg16
S'Paradise Seeds Nebula Breeders Pack'
p4705
sg18
S'United Kingdom'
p4706
sa(dp4707
g10
S'Variety Jones'
p4708
sg12
g58
sg14
V\u0e3f27.05
p4709
sg16
S'Paradise Seeds Rox Breeders Pack'
p4710
sg18
S'United Kingdom'
p4711
sa(dp4712
g10
S'Variety Jones'
p4713
sg12
g58
sg14
V\u0e3f11.81
p4714
sg16
S'High Quality Hawaii Maui Wowie Skunk Breeders Pack'
p4715
sg18
S'United Kingdom'
p4716
sa(dp4717
g10
S'Variety Jones'
p4718
sg12
g58
sg14
V\u0e3f20.83
p4719
sg16
S'Paradise Seeds Sheherazade Breeders Pack'
p4720
sg18
S'United Kingdom'
p4721
sa(dp4722
g10
S'Variety Jones'
p4723
sg12
g58
sg14
V\u0e3f8.70
p4724
sg16
S'High Quality Original Haze X Skunk Breeders Pack'
p4725
sg18
S'United Kingdom'
p4726
sa(dp4727
g10
S'Variety Jones'
p4728
sg12
g58
sg14
V\u0e3f30.77
p4729
sg16
S'ORIGINAL Positronics Master Kush Breeders Pack'
p4730
sg18
S'United Kingdom'
p4731
sa(dp4732
g10
S'Variety Jones'
p4733
sg12
g58
sg14
V\u0e3f28.91
p4734
sg16
S'Paradise Seeds Sensi Star Breeders Pack'
p4735
sg18
S'United Kingdom'
p4736
sa(dp4737
g10
S'Variety Jones'
p4738
sg12
g58
sg14
V\u0e3f7.77
p4739
sg16
S'Nirvana Seeds Nirvana Special Breeders Pack'
p4740
sg18
S'United Kingdom'
p4741
sa(dp4742
g10
S'Variety Jones'
p4743
sg12
g58
sg14
V\u0e3f19.27
p4744
sg16
S'Dutch Passion Mazar Breeders Pack'
p4745
sg18
S'United Kingdom'
p4746
sa(dp4747
g10
S'Variety Jones'
p4748
sg12
g58
sg14
V\u0e3f47.25
p4749
sg16
S'Canna Biogen Destroyer Breeders Pack'
p4750
sg18
S'United Kingdom'
p4751
sa(dp4752
g10
S'Variety Jones'
p4753
sg12
g58
sg14
V\u0e3f30.77
p4754
sg16
S'ORIGINAL Positronics Afghani W-Widow Breeders Pack'
p4755
sg18
S'United Kingdom'
p4756
sa(dp4757
g10
S'ExchangeService'
p4758
sg12
S'98'
p4759
sg14
V\u0e3f52.63
p4760
sg16
S'10 Feminised Powerplant Kera Seeds'
p4761
sg18
S'NL'
p4762
sa(dp4763
g10
S'ExchangeService'
p4764
sg12
S'98'
p4765
sg14
V\u0e3f30.07
p4766
sg16
S'5 Feminised Powerplant Kera Seeds'
p4767
sg18
S'germany'
p4768
sa(dp4769
g10
S'ExchangeService'
p4770
sg12
S'98'
p4771
sg14
V\u0e3f26.34
p4772
sg16
S'5 Feminised Shiva Skunk Kera Seeds'
p4773
sg18
S'nl'
p4774
sa(dp4775
g10
S'ExchangeService'
p4776
sg12
S'98'
p4777
sg14
V\u0e3f48.91
p4778
sg16
S'10 Feminised Shiva Skunk Kera Seeds'
p4779
sg18
S'germany'
p4780
sa(dp4781
g10
S'Variety Jones'
p4782
sg12
g58
sg14
V\u0e3f24.56
p4783
sg16
S'DNA Reserva Apollo 13 Indi Breeders Pack (13 seeds'
p4784
sg18
S'United Kingdom'
p4785
sa(dp4786
g10
S'davidd'
p4787
sg12
S'99'
p4788
sg14
V\u0e3f4.62
p4789
sg16
S'5x Bag Seed (Possibly Sour Diesel)'
p4790
sg18
S'United States of America'
p4791
sa(dp4792
g10
S'CannabisCure'
p4793
sg12
S'100'
p4794
sg14
V\u0e3f7.25
p4795
sg16
S'20  "Top44"  Seeds'
p4796
sg18
S'Germany'
p4797
sa(dp4798
g10
S'Variety Jones'
p4799
sg12
g58
sg14
V\u0e3f19.27
p4800
sg16
S"Flying Dutchmen Haley's Comet Breeders Pack"
p4801
sg18
S'United Kingdom'
p4802
sa(dp4803
g10
S'purp13'
p4804
sg12
g58
sg14
V\u0e3f5.01
p4805
sg16
S'20 HQ Midgrade seeds'
p4806
sg18
S'USA'
p4807
saaa(lp4808
(lp4809
S'Cannabis'
p4810
aS'Oils'
p4811
aa(lp4812
(dp4813
g10
S'Rook'
p4814
sg12
S'100'
p4815
sg14
V\u0e3f22.13
p4816
sg16
S'Pure Butane Honey Oil (1g)'
p4817
sg18
S'US'
p4818
sa(dp4819
g10
S'GreenGiant'
p4820
sg12
S'100'
p4821
sg14
V\u0e3f26.42
p4822
sg16
S'1g BHO/ISO Honey Oil'
p4823
sg18
S'United Kingdom'
p4824
sa(dp4825
g10
S'KJohn'
p4826
sg12
g58
sg14
V\u0e3f37.29
p4827
sg16
S'1 gram premium Cannabis extraction oil'
p4828
sg18
S'Canada'
p4829
sa(dp4830
g10
S'GreenGiant'
p4831
sg12
S'100'
p4832
sg14
V\u0e3f28.90
p4833
sg16
S'1g Grand daddy Purple earwax hash '
p4834
sg18
S'UK'
p4835
saaa(lp4836
(lp4837
S'Cannabis'
p4838
aS'Hash'
p4839
aa(lp4840
(dp4841
g10
S'juergen2001'
p4842
sg12
S'98'
p4843
sg14
V\u0e3f8.26
p4844
sg16
S'1g premium moroccan hash directly from the farm in'
p4845
sg18
S'Germany'
p4846
sa(dp4847
g10
S'swch'
p4848
sg12
S'94'
p4849
sg14
V\u0e3f18.16
p4850
sg16
S'5g Top Swiss Quality Hash'
p4851
sg18
S'Switzerland'
p4852
sa(dp4853
g10
S'DutchShop'
p4854
sg12
S'97'
p4855
sg14
V\u0e3f7.60
p4856
sg16
S'3 gram Commerce Maroc Hash al Hoceima '
p4857
sg18
S'Netherlands'
p4858
sa(dp4859
g10
S'AmsterdamShop'
p4860
sg12
g58
sg14
V\u0e3f6.11
p4861
sg16
S'Maroc 1 Gram (hash)'
p4862
sg18
S'Netherlands'
p4863
sa(dp4864
g10
S'AmsterdamShop'
p4865
sg12
g58
sg14
V\u0e3f5.80
p4866
sg16
S'Primero 1 Gram (hash)'
p4867
sg18
S'Netherlands'
p4868
sa(dp4869
g10
S'DutchShop'
p4870
sg12
S'97'
p4871
sg14
V\u0e3f44.04
p4872
sg16
S'20 gram Commerce Maroc Hash al Hoceima '
p4873
sg18
S'Netherlands'
p4874
sa(dp4875
g10
S'DutchShop'
p4876
sg12
S'97'
p4877
sg14
V\u0e3f18.66
p4878
sg16
S'3 gram Super Polm Premium Maroc Hash'
p4879
sg18
S'Netherlands'
p4880
sa(dp4881
g10
S'GreenGiant'
p4882
sg12
S'100'
p4883
sg14
V\u0e3f23.94
p4884
sg16
S'3.5g Moroccan Filter Hash ***Bubbles****'
p4885
sg18
S'United Kingdom'
p4886
sa(dp4887
g10
S'ExchangeService'
p4888
sg12
S'98'
p4889
sg14
V\u0e3f22.72
p4890
sg16
S'10g standard hash '
p4891
sg18
S'Germany'
p4892
sa(dp4893
g10
S'DutchShop'
p4894
sg12
S'97'
p4895
sg14
V\u0e3f44.04
p4896
sg16
S'20 gram Commerce Maroc Hash Nador '
p4897
sg18
S'Netherlands'
p4898
sa(dp4899
g10
S'DutchShop'
p4900
sg12
S'97'
p4901
sg14
V\u0e3f12.11
p4902
sg16
S'5 gram Commerce Maroc Hash Nador '
p4903
sg18
S'Netherlands'
p4904
sa(dp4905
g10
S'DutchShop'
p4906
sg12
S'97'
p4907
sg14
V\u0e3f7.93
p4908
sg16
S'3 gram Commerce Maroc Hash Nador '
p4909
sg18
S'Netherlands'
p4910
sa(dp4911
g10
S'BashfulBetty'
p4912
sg12
S'100'
p4913
sg14
V\u0e3f8.26
p4914
sg16
S'1g Fresh Bubble Hash + FREE BONUS!'
p4915
sg18
S'Canada'
p4916
sa(dp4917
g10
S'namaste'
p4918
sg12
S'93'
p4919
sg14
V\u0e3f7.15
p4920
sg16
S'1g Pakistani black hashish'
p4921
sg18
S'undeclared'
p4922
sa(dp4923
g10
S'namaste'
p4924
sg12
S'93'
p4925
sg14
V\u0e3f69.19
p4926
sg16
S'10g Pakistani black hashish'
p4927
sg18
S'undeclared'
p4928
sa(dp4929
g10
S'ExchangeService'
p4930
sg12
S'98'
p4931
sg14
V\u0e3f73.42
p4932
sg16
S'10g Top Quality Hasch'
p4933
sg18
S'Germany'
p4934
sa(dp4935
g10
S'ExchangeService'
p4936
sg12
S'98'
p4937
sg14
V\u0e3f38.28
p4938
sg16
S'5g Top Quality Hasch'
p4939
sg18
S'Germany'
p4940
sa(dp4941
g10
S'ExchangeService'
p4942
sg12
S'98'
p4943
sg14
V\u0e3f8.18
p4944
sg16
S'1g Top Quality Hasch'
p4945
sg18
S'Germany'
p4946
sa(dp4947
g10
S'ExchangeService'
p4948
sg12
S'98'
p4949
sg14
V\u0e3f15.72
p4950
sg16
S'2g Top Quality Hasch'
p4951
sg18
S'Germany'
p4952
sa(dp4953
g10
S'ExchangeService'
p4954
sg12
S'98'
p4955
sg14
V\u0e3f11.83
p4956
sg16
S'5g standard hash '
p4957
sg18
S'Germany'
p4958
sa(dp4959
g10
S'ExchangeService'
p4960
sg12
S'98'
p4961
sg14
V\u0e3f41.89
p4962
sg16
S'20g Standard commercial Hash'
p4963
sg18
S'Germany'
p4964
sa(dp4965
g10
S'GreenGiant'
p4966
sg12
S'100'
p4967
sg14
V\u0e3f18.99
p4968
sg16
S'1g Alien Dog Bubble Hash'
p4969
sg18
S'United Kingdom'
p4970
sa(dp4971
g10
S'GreenGiant'
p4972
sg12
S'100'
p4973
sg14
V\u0e3f18.99
p4974
sg16
S'1g Blackberry Kush Bubble Hash'
p4975
sg18
S'United Kingdom'
p4976
sa(dp4977
g10
S'GreenGiant'
p4978
sg12
S'100'
p4979
sg14
V\u0e3f18.99
p4980
sg16
S'1g Master Kush Bubble Hash'
p4981
sg18
S'United Kingdom'
p4982
sa(dp4983
g10
S'GreenGiant'
p4984
sg12
S'100'
p4985
sg14
V\u0e3f8.26
p4986
sg16
S'1g Moroccan Filter Hash'
p4987
sg18
S'United Kingdom'
p4988
sa(dp4989
g10
S'DutchShop'
p4990
sg12
S'97'
p4991
sg14
V\u0e3f32.03
p4992
sg16
S'5 gram Hiya Premium Maroc Hash'
p4993
sg18
S'Netherlands'
p4994
sa(dp4995
g10
S'DutchShop'
p4996
sg12
S'97'
p4997
sg14
V\u0e3f2.75
p4998
sg16
S'1 gram Commerce Maroc Hash al Hoceima '
p4999
sg18
S'Netherlands'
p5000
sa(dp5001
g10
S'AlMaroc'
p5002
sg12
S'94'
p5003
sg14
V\u0e3f60.30
p5004
sg16
S'Maroc Caramello Hash 10 grams'
p5005
sg18
S'EU'
p5006
sa(dp5007
g10
S'GreenGiant'
p5008
sg12
S'100'
p5009
sg14
V\u0e3f16.51
p5010
sg16
S'1g Purple Kush Mixed Grade Hash'
p5011
sg18
S'United Kingdom'
p5012
sa(dp5013
g10
S'mrouid'
p5014
sg12
S'99'
p5015
sg14
V\u0e3f27.98
p5016
sg16
S'1/8-Oz (3.5g) Bubble Hash'
p5017
sg18
S'Canada'
p5018
sa(dp5019
g10
S'euroHASH'
p5020
sg12
g58
sg14
V\u0e3f163.21
p5021
sg16
S'Premium Hash 28g, 1oz (shipping #2, save $50)'
p5022
sg18
S'undeclared'
p5023
sa(dp5024
g10
S'mrouid'
p5025
sg12
S'99'
p5026
sg14
V\u0e3f155.44
p5027
sg16
S'1-Oz (28g) Bubble Hash'
p5028
sg18
S'Canada'
p5029
sa(dp5030
g10
S'euroHASH'
p5031
sg12
g58
sg14
V\u0e3f85.49
p5032
sg16
S'Premium Hash 14g, 1/2oz (shipping #2, save $40)'
p5033
sg18
S'undeclared'
p5034
sa(dp5035
g10
S'euroHASH'
p5036
sg12
g58
sg14
V\u0e3f178.75
p5037
sg16
S'Premium Hash 28g, 1oz'
p5038
sg18
S'Belgium'
p5039
sa(dp5040
g10
S'DutchShop'
p5041
sg12
S'97'
p5042
sg14
V\u0e3f11.56
p5043
sg16
S'5 gram Commerce Maroc Hash al Hoceima '
p5044
sg18
S'Netherlands'
p5045
sa(dp5046
g10
S'tweetb'
p5047
sg12
S'100'
p5048
sg14
V\u0e3f36.33
p5049
sg16
S'3.5 gr Bubble Hash -- OG Kush'
p5050
sg18
S'United States of America'
p5051
sa(dp5052
g10
S'GreenGiant'
p5053
sg12
S'100'
p5054
sg14
V\u0e3f18.99
p5055
sg16
S'1g Tangerine Kush Bubble Hash'
p5056
sg18
S'United Kingdom'
p5057
sa(dp5058
g10
S'SpanishFly'
p5059
sg12
S'100'
p5060
sg14
V\u0e3f31.81
p5061
sg16
S'5g **PREMIUM** Pakistani Hash '
p5062
sg18
S'Spain'
p5063
sa(dp5064
g10
S'AmsterdamShop'
p5065
sg12
g58
sg14
V\u0e3f5.80
p5066
sg16
S'Polm 1 Gram (hash)'
p5067
sg18
S'Netherlands'
p5068
sa(dp5069
g10
S'DutchShop'
p5070
sg12
S'97'
p5071
sg14
V\u0e3f2.86
p5072
sg16
S'1 gram Commerce Maroc Hash Nador  '
p5073
sg18
S'Netherlands'
p5074
sa(dp5075
g10
S'euroHASH'
p5076
sg12
g58
sg14
V\u0e3f99.48
p5077
sg16
S'Premium Hash 14g, 1/2oz'
p5078
sg18
S'Belgium'
p5079
sa(dp5080
g10
S'AmsterdamShop'
p5081
sg12
g58
sg14
V\u0e3f22.17
p5082
sg16
S'Afghaan 5 Gram (hash)'
p5083
sg18
S'Netherlands'
p5084
sa(dp5085
g10
S'AmsterdamShop'
p5086
sg12
g58
sg14
V\u0e3f26.42
p5087
sg16
S'Polm 5 Grams (hash)'
p5088
sg18
S'Netherlands'
p5089
sa(dp5090
g10
S'AmsterdamShop'
p5091
sg12
g58
sg14
V\u0e3f28.07
p5092
sg16
S'Maroc 5 Gram (hash)'
p5093
sg18
S'Netherlands'
p5094
sa(dp5095
g10
S'AmsterdamShop'
p5096
sg12
g58
sg14
V\u0e3f26.42
p5097
sg16
S'Primero 5 Gram (hash)'
p5098
sg18
S'Netherlands'
p5099
sa(dp5100
g10
S'abacus'
p5101
sg12
g58
sg14
V\u0e3f8.64
p5102
sg16
S'1g AA+ Norwegian buble hash'
p5103
sg18
S'Norway'
p5104
sa(dp5105
g10
S'DutchShop'
p5106
sg12
S'97'
p5107
sg14
V\u0e3f21.20
p5108
sg16
S'3 gram Super Polm Platinum Maroc Hash'
p5109
sg18
S'Netherlands'
p5110
sa(dp5111
g10
S'Rook'
p5112
sg12
S'100'
p5113
sg14
V\u0e3f13.21
p5114
sg16
S'High Quality Purple Urkle Hash (1g)'
p5115
sg18
S'United States of America'
p5116
sa(dp5117
g10
S'AlMaroc'
p5118
sg12
S'94'
p5119
sg14
V\u0e3f16.00
p5120
sg16
S'Maroc Caramello 2,5 grams'
p5121
sg18
S'EU'
p5122
sa(dp5123
g10
S'mrouid'
p5124
sg12
S'99'
p5125
sg14
V\u0e3f62.17
p5126
sg16
S'10g Bubble Hash'
p5127
sg18
S'Canada'
p5128
sa(dp5129
g10
S'AmsterdamShop'
p5130
sg12
g58
sg14
V\u0e3f4.62
p5131
sg16
S'Afghaan 1 Gram (hash)'
p5132
sg18
S'Netherlands'
p5133
sa(dp5134
g10
S'DutchShop'
p5135
sg12
S'97'
p5136
sg14
V\u0e3f30.15
p5137
sg16
S'5 gram Super Polm Premium Maroc Hash'
p5138
sg18
S'Netherlands'
p5139
sa(dp5140
g10
S'ExchangeService'
p5141
sg12
S'98'
p5142
sg14
V\u0e3f2.58
p5143
sg16
S'1g Standard Hasch '
p5144
sg18
S'Germany'
p5145
sa(dp5146
g10
S'Paperchasing'
p5147
sg12
S'99'
p5148
sg14
V\u0e3f24.79
p5149
sg16
S'Black Thai Hash - 7g'
p5150
sg18
S'United States of America'
p5151
sa(dp5152
g10
S'Paperchasing'
p5153
sg12
S'99'
p5154
sg14
V\u0e3f14.88
p5155
sg16
S'Black Thai Hash - 3.5g'
p5156
sg18
S'United States of America'
p5157
sa(dp5158
g10
S'Rook'
p5159
sg12
S'100'
p5160
sg14
V\u0e3f9.81
p5161
sg16
S'-Black Hashish- Master Headband (1g)'
p5162
sg18
S'US'
p5163
sa(dp5164
g10
S'SpanishFly'
p5165
sg12
S'100'
p5166
sg14
V\u0e3f6.67
p5167
sg16
S'1g **PREMIUM** Pakistani Hash '
p5168
sg18
S'Spain'
p5169
sa(dp5170
g10
S'ExchangeService'
p5171
sg12
S'98'
p5172
sg14
V\u0e3f12.81
p5173
sg16
S'3,5g  Schwarzer Afghane'
p5174
sg18
S'Germany'
p5175
sa(dp5176
g10
S'tweetb'
p5177
sg12
S'100'
p5178
sg14
V\u0e3f13.33
p5179
sg16
S'1 gr Bubble Hash -- OG Kush'
p5180
sg18
S'us'
p5181
sa(dp5182
g10
S'ExchangeService'
p5183
sg12
S'98'
p5184
sg14
V\u0e3f18.13
p5185
sg16
S'Schwarzer Afghane (5 Gramm)'
p5186
sg18
S'Germany'
p5187
sa(dp5188
g10
S'vortexmilkman'
p5189
sg12
S'98'
p5190
sg14
V\u0e3f11.07
p5191
sg16
S'1g [[OG Kush x GDP]] HASH'
p5192
sg18
S'USA'
p5193
sa(dp5194
g10
S'ExchangeService'
p5195
sg12
S'98'
p5196
sg14
V\u0e3f4.85
p5197
sg16
S'Schwarzer Afghane (1 Gramm)'
p5198
sg18
S'Germany'
p5199
sa(dp5200
g10
S'ExchangeService'
p5201
sg12
S'98'
p5202
sg14
V\u0e3f7.12
p5203
sg16
S'1g Pollum'
p5204
sg18
S'Germany'
p5205
sa(dp5206
g10
S'DutchShop'
p5207
sg12
S'97'
p5208
sg14
V\u0e3f7.27
p5209
sg16
S'1 gram Super Polm Platinum Maroc Hash'
p5210
sg18
S'Netherlands'
p5211
sa(dp5212
g10
S'hashuk'
p5213
sg12
S'99'
p5214
sg14
V\u0e3f6.27
p5215
sg16
S'1g Afghani Black - another rare treat'
p5216
sg18
S'United Kingdom'
p5217
sa(dp5218
g10
S'ExchangeService'
p5219
sg12
S'98'
p5220
sg14
V\u0e3f3.48
p5221
sg16
S'Schwarzer Afghane (0,5 Gramm)'
p5222
sg18
S'germany'
p5223
sa(dp5224
g10
S'DutchShop'
p5225
sg12
S'97'
p5226
sg14
V\u0e3f2.59
p5227
sg16
S'1 gram Commerce Maroc Hash'
p5228
sg18
S'Netherlands'
p5229
sa(dp5230
g10
S'Mitanox'
p5231
sg12
S'98'
p5232
sg14
V\u0e3f8.26
p5233
sg16
S'Mohammed IV hashish [1 gram]'
p5234
sg18
S'EU'
p5235
sa(dp5236
g10
S'DutchShop'
p5237
sg12
S'97'
p5238
sg14
V\u0e3f3.43
p5239
sg16
S'0.5 gram Hiya Premium Maroc Hash'
p5240
sg18
S'Netherlands'
p5241
sa(dp5242
g10
S'AlMaroc'
p5243
sg12
S'94'
p5244
sg14
V\u0e3f6.96
p5245
sg16
S'Maroc Caramello Hash 1 gram'
p5246
sg18
S'EU'
p5247
sa(dp5248
g10
S'DutchShop'
p5249
sg12
S'97'
p5250
sg14
V\u0e3f6.87
p5251
sg16
S'1 gram Hiya Premium Maroc Hash'
p5252
sg18
S'Netherlands'
p5253
sa(dp5254
g10
S'ExchangeService'
p5255
sg12
S'98'
p5256
sg14
V\u0e3f31.35
p5257
sg16
S'6g pollum'
p5258
sg18
S'Germany'
p5259
sa(dp5260
g10
S'DutchShop'
p5261
sg12
S'97'
p5262
sg14
V\u0e3f7.10
p5263
sg16
S'3 gram Commerce Maroc Hash'
p5264
sg18
S'Netherlands'
p5265
sa(dp5266
g10
S'Rook'
p5267
sg12
S'100'
p5268
sg14
V\u0e3f3.96
p5269
sg16
S'Black-Rock Hash 1g (read description!)'
p5270
sg18
S'US'
p5271
sa(dp5272
g10
S'DutchShop'
p5273
sg12
S'97'
p5274
sg14
V\u0e3f3.20
p5275
sg16
S'0.5 gram Super Polm Premium Maroc Hash'
p5276
sg18
S'Netherlands'
p5277
sa(dp5278
g10
S'swch'
p5279
sg12
S'94'
p5280
sg14
V\u0e3f3.47
p5281
sg16
S'1g Top Swiss Quality Hash - Sample'
p5282
sg18
S'Switzerland'
p5283
sa(dp5284
g10
S'ExchangeService'
p5285
sg12
S'98'
p5286
sg14
V\u0e3f17.11
p5287
sg16
S'3g Pollum'
p5288
sg18
S'Germany'
p5289
sa(dp5290
g10
S'hashuk'
p5291
sg12
S'99'
p5292
sg14
V\u0e3f20.12
p5293
sg16
S'3.5g Afghani Black - another rare treat :)'
p5294
sg18
S'United Kingdom'
p5295
sa(dp5296
g10
S'AlMaroc'
p5297
sg12
S'94'
p5298
sg14
V\u0e3f15.86
p5299
sg16
S'Best Quality Polm from Maroc 5 Gr'
p5300
sg18
S'EU'
p5301
sa(dp5302
g10
S'DutchShop'
p5303
sg12
S'97'
p5304
sg14
V\u0e3f34.34
p5305
sg16
S'5 gram Super Polm Platinum Maroc Hash'
p5306
sg18
S'Netherlands'
p5307
sa(dp5308
g10
S'DutchShop'
p5309
sg12
S'97'
p5310
sg14
V\u0e3f3.63
p5311
sg16
S'0.5 gram Super Polm Platinum Maroc Hash'
p5312
sg18
S'Netherlands'
p5313
sa(dp5314
g10
S'DutchShop'
p5315
sg12
S'97'
p5316
sg14
V\u0e3f6.41
p5317
sg16
S'1 gram Super Polm Premium Maroc Hash'
p5318
sg18
S'Netherlands'
p5319
sa(dp5320
g10
S'DutchShop'
p5321
sg12
S'97'
p5322
sg14
V\u0e3f10.79
p5323
sg16
S'5 gram Commerce Maroc Hash'
p5324
sg18
S'Netherlands'
p5325
sa(dp5326
g10
S'juergen2001'
p5327
sg12
S'98'
p5328
sg14
V\u0e3f39.63
p5329
sg16
S'5 g Premium moroccan hash.. directly from the farm'
p5330
sg18
S'Germany'
p5331
sa(dp5332
g10
S'hashuk'
p5333
sg12
S'99'
p5334
sg14
V\u0e3f38.68
p5335
sg16
S'7g Afghani Black hashish'
p5336
sg18
S'United Kingdom'
p5337
sa(dp5338
g10
S'DutchShop'
p5339
sg12
S'97'
p5340
sg14
V\u0e3f19.98
p5341
sg16
S'3 gram Hiya Premium Maroc Hash'
p5342
sg18
S'Netherlands'
p5343
sa(dp5344
g10
S'AlMaroc'
p5345
sg12
S'94'
p5346
sg14
V\u0e3f30.93
p5347
sg16
S'Maroc Caramello 5 grams'
p5348
sg18
S'EU'
p5349
saaa(lp5350
(lp5351
S'Cannabis'
p5352
aS'Weed'
p5353
aa(lp5354
(dp5355
g10
S'got2luvfreemarket'
p5356
sg12
S'100'
p5357
sg14
V\u0e3f107.33
p5358
sg16
S'1oz(28.4g) Royal Kush early release prev cust only'
p5359
sg18
S'United States of America'
p5360
sa(dp5361
g10
S'Mister Dank'
p5362
sg12
S'87'
p5363
sg14
V\u0e3f31.25
p5364
sg16
S'1/4oz (7g)  Blue Dream marijuana'
p5365
sg18
S'US'
p5366
sa(dp5367
g10
S'Anarcho47'
p5368
sg12
S'100'
p5369
sg14
V\u0e3f69.43
p5370
sg16
S'1/2 oz Purple Kush AAA **Just In**'
p5371
sg18
S'Canada'
p5372
sa(dp5373
g10
S'TimeTraveler'
p5374
sg12
S'88'
p5375
sg14
V\u0e3f16.69
p5376
sg16
S'1/8th Northern Berry'
p5377
sg18
S'United States of America'
p5378
sa(dp5379
g10
S'cindylove'
p5380
sg12
g58
sg14
V\u0e3f27.21
p5381
sg16
S'1/2oz (14g) Equatorial Sativa (Unknown strain)'
p5382
sg18
S'Asia'
p5383
sa(dp5384
g10
S'godofall'
p5385
sg12
S'98'
p5386
sg14
V\u0e3f17.50
p5387
sg16
S'1/8 oz. (3.5g) Fire OG Medical Grade'
p5388
sg18
S'United States of America'
p5389
sa(dp5390
g10
S'mrouid'
p5391
sg12
S'99'
p5392
sg14
V\u0e3f349.73
p5393
sg16
S'Q.P. (113g) Bubble Kush'
p5394
sg18
S'Canada'
p5395
sa(dp5396
g10
S'mrouid'
p5397
sg12
S'99'
p5398
sg14
V\u0e3f24.87
p5399
sg16
S'1/4-Oz (7g) White Widow'
p5400
sg18
S'Canada'
p5401
sa(dp5402
g10
S'mrouid'
p5403
sg12
S'99'
p5404
sg14
V\u0e3f101.03
p5405
sg16
S'1-Oz (28g) Bubble Kush'
p5406
sg18
S'Canada'
p5407
sa(dp5408
g10
S'euroHASH'
p5409
sg12
g58
sg14
V\u0e3f103.52
p5410
sg16
S'Jamaican Sativa 14g, 1/2oz'
p5411
sg18
S'undeclared'
p5412
sa(dp5413
g10
S'milehighmedicine'
p5414
sg12
S'100'
p5415
sg14
V\u0e3f28.40
p5416
sg16
S'Mental Haze quarter ounce'
p5417
sg18
S'United States of America'
p5418
sa(dp5419
g10
S'milehighmedicine'
p5420
sg12
S'100'
p5421
sg14
V\u0e3f28.40
p5422
sg16
S'LA Confidential quarter ounce'
p5423
sg18
S'United States of America'
p5424
sa(dp5425
g10
S'milehighmedicine'
p5426
sg12
S'100'
p5427
sg14
V\u0e3f28.40
p5428
sg16
S'Hindu Kush quarter ounce'
p5429
sg18
S'United States of America'
p5430
sa(dp5431
g10
S'milehighmedicine'
p5432
sg12
S'100'
p5433
sg14
V\u0e3f28.40
p5434
sg16
S'Tangelo Haze quarter ounce'
p5435
sg18
S'United States of America'
p5436
sa(dp5437
g10
S'milehighmedicine'
p5438
sg12
S'100'
p5439
sg14
V\u0e3f28.40
p5440
sg16
S'White Rhino quarter ounce'
p5441
sg18
S'United States of America'
p5442
sa(dp5443
g10
S'milehighmedicine'
p5444
sg12
S'100'
p5445
sg14
V\u0e3f16.51
p5446
sg16
S'Hindu Kush eighth ounce'
p5447
sg18
S'Uzbekistan'
p5448
sa(dp5449
g10
S'milehighmedicine'
p5450
sg12
S'100'
p5451
sg14
V\u0e3f28.40
p5452
sg16
S'Wonder Diesel quarter ounce'
p5453
sg18
S'United States of America'
p5454
sa(dp5455
g10
S'mrouid'
p5456
sg12
S'99'
p5457
sg14
V\u0e3f24.87
p5458
sg16
S'1/4-Oz (7g) Hell-A Kush'
p5459
sg18
S'Canada'
p5460
sa(dp5461
g10
S'KJohn'
p5462
sg12
g58
sg14
V\u0e3f23.63
p5463
sg16
S'7 grams of medical grade bud (sample offer)'
p5464
sg18
S'Canada'
p5465
sa(dp5466
g10
S'milehighmedicine'
p5467
sg12
S'100'
p5468
sg14
V\u0e3f16.51
p5469
sg16
S'LA Confidential eighth ounce'
p5470
sg18
S'United States of America'
p5471
sa(dp5472
g10
S'milehighmedicine'
p5473
sg12
S'100'
p5474
sg14
V\u0e3f16.51
p5475
sg16
S'Mental Haze eighth ounce'
p5476
sg18
S'United States of America'
p5477
sa(dp5478
g10
S'AmsterdamShop'
p5479
sg12
g58
sg14
V\u0e3f26.42
p5480
sg16
S'10 Pre rolled STRONG Weed Joints  '
p5481
sg18
S'Netherlands'
p5482
sa(dp5483
g10
S'AmsterdamShop'
p5484
sg12
g58
sg14
V\u0e3f19.81
p5485
sg16
S'10 Pre rolled MEDIUM Weed Joints'
p5486
sg18
S'Netherlands'
p5487
sa(dp5488
g10
S'AusBudz'
p5489
sg12
S'100'
p5490
sg14
V\u0e3f115.58
p5491
sg16
S'Aussie Kush - Sleepy Time Strain - 1oz'
p5492
sg18
S'Australia'
p5493
sa(dp5494
g10
S'milehighmedicine'
p5495
sg12
S'100'
p5496
sg14
V\u0e3f16.51
p5497
sg16
S'Wonder Diesel eighth ounce'
p5498
sg18
S'United States of America'
p5499
sa(dp5500
g10
S'milehighmedicine'
p5501
sg12
S'100'
p5502
sg14
V\u0e3f16.51
p5503
sg16
S'Tangelo Haze eighth ounce'
p5504
sg18
S'United States of America'
p5505
sa(dp5506
g10
S'AmsterdamShop'
p5507
sg12
g58
sg14
V\u0e3f5.78
p5508
sg16
S'SAMPLE ORDER: 2 Pre rolled STRONG Weed Joints'
p5509
sg18
S'Netherlands'
p5510
sa(dp5511
g10
S'happyhippy'
p5512
sg12
g58
sg14
V\u0e3f18.74
p5513
sg16
S'1/8 Oz Auto AK 47 ( AK 47 / Lowryder cross)'
p5514
sg18
S'United Kingdom'
p5515
sa(dp5516
g10
S'AmsterdamShop'
p5517
sg12
g58
sg14
V\u0e3f5.12
p5518
sg16
S'SAMPLE ORDER: 2 Pre rolled MEDIUM Weed Joints'
p5519
sg18
S'Netherlands'
p5520
sa(dp5521
g10
S'AmsterdamShop'
p5522
sg12
g58
sg14
V\u0e3f14.53
p5523
sg16
S'3.5 gram (1/8 oz)  Northern Light AAA quality'
p5524
sg18
S'Netherlands'
p5525
sa(dp5526
g10
S'happyhippy'
p5527
sg12
g58
sg14
V\u0e3f36.19
p5528
sg16
S'1/4 Oz Auto AK 47 ( AK 47 / Lowryder cross)'
p5529
sg18
S'United Kingdom'
p5530
sa(dp5531
g10
S'happyhippy'
p5532
sg12
g58
sg14
V\u0e3f69.57
p5533
sg16
S'1/2 Oz Auto AK 47 ( AK 47 / Lowryder cross)'
p5534
sg18
S'United Kingdom'
p5535
sa(dp5536
g10
S'euroHASH'
p5537
sg12
g58
sg14
V\u0e3f85.49
p5538
sg16
S'Pink Panther Weed 14g, 1/2oz'
p5539
sg18
S'undeclared'
p5540
sa(dp5541
g10
S'euroHASH'
p5542
sg12
g58
sg14
V\u0e3f125.90
p5543
sg16
S'Pink Panther Weed 28g, 1oz (save $55)'
p5544
sg18
S'undeclared'
p5545
sa(dp5546
g10
S'euroHASH'
p5547
sg12
g58
sg14
V\u0e3f99.48
p5548
sg16
S'OG Kush 14g, 1/2oz'
p5549
sg18
S'undeclared'
p5550
sa(dp5551
g10
S'freedompeople'
p5552
sg12
S'97'
p5553
sg14
V\u0e3f15.21
p5554
sg16
S'White Widow - 2.5 Grams '
p5555
sg18
S'Netherlands'
p5556
sa(dp5557
g10
S'TimeTraveler'
p5558
sg12
S'88'
p5559
sg14
V\u0e3f51.56
p5560
sg16
S'1/2 oz Vortex'
p5561
sg18
S'United States of America'
p5562
sa(dp5563
g10
S'Anarcho47'
p5564
sg12
S'100'
p5565
sg14
V\u0e3f51.45
p5566
sg16
S'**1/2 oz Jack Herrer 100% Sativa Strain**'
p5567
sg18
S'Canada'
p5568
sa(dp5569
g10
S'Rook'
p5570
sg12
S'100'
p5571
sg14
V\u0e3f4.43
p5572
sg16
S'_OG Kush_ *Limited*'
p5573
sg18
S'United States of America'
p5574
sa(dp5575
g10
S'milehighmedicine'
p5576
sg12
S'100'
p5577
sg14
V\u0e3f16.51
p5578
sg16
S'Durban Poison eighth ounce'
p5579
sg18
S'United States of America'
p5580
sa(dp5581
g10
S'TimeTraveler'
p5582
sg12
S'88'
p5583
sg14
V\u0e3f51.36
p5584
sg16
S'1/2 oz BlackBerry'
p5585
sg18
S'United States of America'
p5586
sa(dp5587
g10
S'TimeTraveler'
p5588
sg12
S'88'
p5589
sg14
V\u0e3f51.36
p5590
sg16
S'1/2 oz Afghan Kush'
p5591
sg18
S'United States of America'
p5592
sa(dp5593
g10
S'kaliforniaProducts'
p5594
sg12
S'99'
p5595
sg14
V\u0e3f97.48
p5596
sg16
S'1oz(28g)OG kush/AK47/Black Sativa/White Widow '
p5597
sg18
S'United States of America'
p5598
sa(dp5599
g10
S'Anarcho47'
p5600
sg12
S'100'
p5601
sg14
V\u0e3f27.44
p5602
sg16
S'**Sample/Review Sale - 1/4oz Jack Harer Cannabis'
p5603
sg18
S'Canada'
p5604
sa(dp5605
g10
S'AusBudz'
p5606
sg12
S'100'
p5607
sg14
V\u0e3f33.02
p5608
sg16
S'Aussie Kush 7g'
p5609
sg18
S'Australia'
p5610
sa(dp5611
g10
S'Anarcho47'
p5612
sg12
S'100'
p5613
sg14
V\u0e3f69.64
p5614
sg16
S'Outdoor Weed - various strains - 1oz'
p5615
sg18
S'Canada'
p5616
sa(dp5617
g10
S'PostmanPot'
p5618
sg12
S'100'
p5619
sg14
V\u0e3f19.81
p5620
sg16
S'4g Cannabis'
p5621
sg18
S'Australia'
p5622
sa(dp5623
g10
S'Rook'
p5624
sg12
S'100'
p5625
sg14
V\u0e3f4.76
p5626
sg16
S'_Blue Dream_ Premium Indoor *Limited* (Read!)'
p5627
sg18
S'United States of America'
p5628
sa(dp5629
g10
S'TimeTraveler'
p5630
sg12
S'88'
p5631
sg14
V\u0e3f51.52
p5632
sg16
S'1/2 oz Blueberry x Northern Lights'
p5633
sg18
S'United States of America'
p5634
sa(dp5635
g10
S'TimeTraveler'
p5636
sg12
S'88'
p5637
sg14
V\u0e3f27.63
p5638
sg16
S'1/4 oz Northern Berry'
p5639
sg18
S'United States of America'
p5640
sa(dp5641
g10
S'ExchangeService'
p5642
sg12
S'98'
p5643
sg14
V\u0e3f38.78
p5644
sg16
S'6g Super Amnezia Haze'
p5645
sg18
S'Germany'
p5646
sa(dp5647
g10
S'Swazibudbud888'
p5648
sg12
S'99'
p5649
sg14
V\u0e3f124.78
p5650
sg16
S'2oz - "Swazi Red" (Rooibaard) African Sativa'
p5651
sg18
S'South Africa'
p5652
sa(dp5653
g10
S'TimeTraveler'
p5654
sg12
S'88'
p5655
sg14
V\u0e3f51.37
p5656
sg16
S'1/2 oz Agent Orange'
p5657
sg18
S'United States of America'
p5658
sa(dp5659
g10
S'TimeTraveler'
p5660
sg12
S'88'
p5661
sg14
V\u0e3f27.53
p5662
sg16
S'1/4 oz Agent Orange'
p5663
sg18
S'United States of America'
p5664
sa(dp5665
g10
S'mrouid'
p5666
sg12
S'99'
p5667
sg14
V\u0e3f272.01
p5668
sg16
S'Q.P. (113g) M39 Indica'
p5669
sg18
S'Canada'
p5670
sa(dp5671
g10
S'happyhippy'
p5672
sg12
g58
sg14
V\u0e3f9.98
p5673
sg16
S'1/16 Oz Auto AK 47 ( AK 47 / Lowryder cross)'
p5674
sg18
S'United Kingdom'
p5675
sa(dp5676
g10
S'Rook'
p5677
sg12
S'100'
p5678
sg14
V\u0e3f4.46
p5679
sg16
S'_Green Queen_'
p5680
sg18
S'United States of America'
p5681
sa(dp5682
g10
S'milehighmedicine'
p5683
sg12
S'100'
p5684
sg14
V\u0e3f28.40
p5685
sg16
S'Island Sweet Skunk quarter ounce'
p5686
sg18
S'United States of America'
p5687
sa(dp5688
g10
S'BusinessAsAlways'
p5689
sg12
S'93'
p5690
sg14
V\u0e3f41.28
p5691
sg16
S'1/4 OZ Sour Diesel'
p5692
sg18
S'USA'
p5693
sa(dp5694
g10
S'Rook'
p5695
sg12
S'100'
p5696
sg14
V\u0e3f4.56
p5697
sg16
S'_Mean Green Martian_ 1/8 - 1oz (Read Description!)'
p5698
sg18
S'United States of America'
p5699
sa(dp5700
g10
S'mrouid'
p5701
sg12
S'99'
p5702
sg14
V\u0e3f93.26
p5703
sg16
S'1-Oz (28g) White Widow'
p5704
sg18
S'Canada'
p5705
sa(dp5706
g10
S'milehighmedicine'
p5707
sg12
S'100'
p5708
sg14
V\u0e3f16.51
p5709
sg16
S'White Rhino eighth ounce'
p5710
sg18
S'United States of America'
p5711
sa(dp5712
g10
S'PostmanPot'
p5713
sg12
S'100'
p5714
sg14
V\u0e3f33.02
p5715
sg16
S'8g Cannabis'
p5716
sg18
S'Australia'
p5717
sa(dp5718
g10
S'milehighmedicine'
p5719
sg12
S'100'
p5720
sg14
V\u0e3f51.52
p5721
sg16
S'Island Sweet Skunk  half oz'
p5722
sg18
S'United States of America'
p5723
sa(dp5724
g10
S'purp13'
p5725
sg12
g58
sg14
V\u0e3f3.71
p5726
sg16
S'HQ Mids (1G : Sample)'
p5727
sg18
S'USA'
p5728
sa(dp5729
g10
S'milehighmedicine'
p5730
sg12
S'100'
p5731
sg14
V\u0e3f51.52
p5732
sg16
S'Durban Poison half oz '
p5733
sg18
S'United States of America'
p5734
sa(dp5735
g10
S'Anarcho47'
p5736
sg12
S'100'
p5737
sg14
V\u0e3f98.94
p5738
sg16
S'1 oz Jack Herrer Sativa'
p5739
sg18
S'Canada'
p5740
sa(dp5741
g10
S'milehighmedicine'
p5742
sg12
S'100'
p5743
sg14
V\u0e3f28.40
p5744
sg16
S'Durban Poison quarter ounce'
p5745
sg18
S'United States of America'
p5746
sa(dp5747
g10
S'milehighmedicine'
p5748
sg12
S'100'
p5749
sg14
V\u0e3f16.51
p5750
sg16
S'Island Sweet Skunk eighth ounce'
p5751
sg18
S'United States of America'
p5752
sa(dp5753
g10
S'ExchangeService'
p5754
sg12
S'98'
p5755
sg14
V\u0e3f171.65
p5756
sg16
S'1 oz SuperAmnesia Haze ( 28,35g)'
p5757
sg18
S'Germany'
p5758
sa(dp5759
g10
S'spotter'
p5760
sg12
S'100'
p5761
sg14
V\u0e3f11.11
p5762
sg16
S'1/2 oz Leaf'
p5763
sg18
S'US'
p5764
sa(dp5765
g10
S'happyhippy'
p5766
sg12
g58
sg14
V\u0e3f14.87
p5767
sg16
S'GIFT WRAPPED XMAS SPECIAL personalized for you '
p5768
sg18
S'United Kingdom'
p5769
sa(dp5770
g10
S'got2luvfreemarket'
p5771
sg12
S'100'
p5772
sg14
V\u0e3f8.26
p5773
sg16
S'1/16oz (1.75g) Royal Kush comeback special!'
p5774
sg18
S'United States of America'
p5775
sa(dp5776
g10
S'mrouid'
p5777
sg12
S'99'
p5778
sg14
V\u0e3f38.86
p5779
sg16
S'10g Bubble Kush'
p5780
sg18
S'Canada'
p5781
sa(dp5782
g10
S'got2luvfreemarket'
p5783
sg12
S'100'
p5784
sg14
V\u0e3f16.51
p5785
sg16
S'1/8oz(3.5g) Royal Kush comeback special!'
p5786
sg18
S'United States of America'
p5787
sa(dp5788
g10
S'XTCking'
p5789
sg12
S'99'
p5790
sg14
V\u0e3f4.62
p5791
sg16
S">>>>>>>>1 gr. weed ''POWER PLANT''<<<<<<<<"
p5792
sg18
S'Netherlands'
p5793
sa(dp5794
g10
S'oso'
p5795
sg12
S'100'
p5796
sg14
V\u0e3f28.07
p5797
sg16
S'Humboldt Kushana x Sour Diesel +Free gram sample'
p5798
sg18
S'undeclared'
p5799
sa(dp5800
g10
S'got2luvfreemarket'
p5801
sg12
S'100'
p5802
sg14
V\u0e3f29.72
p5803
sg16
S'1/4oz(7.1g) Royal Kush'
p5804
sg18
S'United States of America'
p5805
sa(dp5806
g10
S'godofall'
p5807
sg12
S'98'
p5808
sg14
V\u0e3f17.17
p5809
sg16
S'1/8 oz. (3.5g) Burmese Medical Grade'
p5810
sg18
S'United States of America'
p5811
sa(dp5812
g10
S'Holland'
p5813
sg12
S'97'
p5814
sg14
V\u0e3f92.47
p5815
sg16
V1 Oz.  \u2261\u2261 POWER PLANT \u2261\u2261
p5816
sg18
S'Netherlands'
p5817
sa(dp5818
g10
S'Anarcho47'
p5819
sg12
S'100'
p5820
sg14
V\u0e3f29.34
p5821
sg16
S'~ HEMP STAR ~ New!  7 Grams - Free Samples'
p5822
sg18
S'Canada'
p5823
sa(dp5824
g10
S'abacus'
p5825
sg12
g58
sg14
V\u0e3f12.62
p5826
sg16
S'1g AAA+ Weed'
p5827
sg18
S'Norway'
p5828
sa(dp5829
g10
S'GreenGiant'
p5830
sg12
S'100'
p5831
sg14
V\u0e3f28.07
p5832
sg16
S'3.5g White Berry ***Indoor***'
p5833
sg18
S'United Kingdom'
p5834
sa(dp5835
g10
S'TimeTraveler'
p5836
sg12
S'88'
p5837
sg14
V\u0e3f53.10
p5838
sg16
S'1/8th Power Kush'
p5839
sg18
S'United States of America'
p5840
sa(dp5841
g10
S'PuffBuddy'
p5842
sg12
S'100'
p5843
sg14
V\u0e3f31.09
p5844
sg16
S'~USA~PuffBuddy~ 1/4 oz (7g) Train Wreck'
p5845
sg18
S'United States of America'
p5846
sa(dp5847
g10
S'PuffBuddy'
p5848
sg12
S'100'
p5849
sg14
V\u0e3f18.65
p5850
sg16
S'~USA~PuffBuddy~ 1/8 oz (3.5g) Train Wreck'
p5851
sg18
S'United States of America'
p5852
sa(dp5853
g10
S'PuffBuddy'
p5854
sg12
S'100'
p5855
sg14
V\u0e3f12.42
p5856
sg16
S'~USA~PuffBuddy~ 1/14 oz (2g) Train Wreck'
p5857
sg18
S'United States of America'
p5858
sa(dp5859
g10
S'PuffBuddy'
p5860
sg12
S'100'
p5861
sg14
V\u0e3f12.42
p5862
sg16
S'~USA~PuffBuddy~ 1/14 oz (2g) Haze'
p5863
sg18
S'United States of America'
p5864
sa(dp5865
g10
S'PuffBuddy'
p5866
sg12
S'100'
p5867
sg14
V\u0e3f31.09
p5868
sg16
S'~USA~PuffBuddy~ 1/4 oz (7g) Haze'
p5869
sg18
S'United States of America'
p5870
sa(dp5871
g10
S'PuffBuddy'
p5872
sg12
S'100'
p5873
sg14
V\u0e3f18.65
p5874
sg16
S'~USA~PuffBuddy~ 1/8 oz (3.5g) Haze'
p5875
sg18
S'United States of America'
p5876
sa(dp5877
g10
S'420med4u'
p5878
sg12
S'100'
p5879
sg14
V\u0e3f21.99
p5880
sg16
S'*Super BOMB* Super Silver Haze 1/8 3.5g'
p5881
sg18
S'United States of America'
p5882
sa(dp5883
g10
S'mrouid'
p5884
sg12
S'99'
p5885
sg14
V\u0e3f31.09
p5886
sg16
S'10g M39 Indica'
p5887
sg18
S'Canada'
p5888
sa(dp5889
g10
S'HepaAir'
p5890
sg12
S'100'
p5891
sg14
V\u0e3f147.28
p5892
sg16
S'2oz (56g) QUERKLE AMAZINGLY BEAUTIFUL'
p5893
sg18
S'United States of America'
p5894
sa(dp5895
g10
S'mrouid'
p5896
sg12
S'99'
p5897
sg14
V\u0e3f38.86
p5898
sg16
S'10g Purple Kush'
p5899
sg18
S'Canada'
p5900
sa(dp5901
g10
S'BashfulBetty'
p5902
sg12
S'100'
p5903
sg14
V\u0e3f11.23
p5904
sg16
S'3.5g High Quality Outdoor Weed + FREE BONUS'
p5905
sg18
S'Canada'
p5906
sa(dp5907
g10
S'HepaAir'
p5908
sg12
S'100'
p5909
sg14
V\u0e3f15.19
p5910
sg16
S'1/8oz (3.5g) QUERKLE AMAZINGLY BEAUTIFUL'
p5911
sg18
S'United States of America'
p5912
sa(dp5913
g10
S'HepaAir'
p5914
sg12
S'100'
p5915
sg14
V\u0e3f84.21
p5916
sg16
S'1oz (28g) QUERKLE AMAZINGLY BEAUTIFUL'
p5917
sg18
S'United States of America'
p5918
sa(dp5919
g10
S'HepaAir'
p5920
sg12
S'100'
p5921
sg14
V\u0e3f47.88
p5922
sg16
S'1/2oz (14g) QUERKLE AMAZINGLY BEAUTIFUL'
p5923
sg18
S'United States of America'
p5924
sa(dp5925
g10
S'HepaAir'
p5926
sg12
S'100'
p5927
sg14
V\u0e3f26.09
p5928
sg16
S'1/4oz (7g) QUERKLE AMAZINGLY BEAUTIFUL'
p5929
sg18
S'United States of America'
p5930
sa(dp5931
g10
S'tweetb'
p5932
sg12
S'100'
p5933
sg14
V\u0e3f7.60
p5934
sg16
S'+Exotic OG Kush+---1g'
p5935
sg18
S'us'
p5936
sa(dp5937
g10
S'tweetb'
p5938
sg12
S'100'
p5939
sg14
V\u0e3f21.47
p5940
sg16
S'+Exotic OG Kush+---3.5g'
p5941
sg18
S'us'
p5942
sa(dp5943
g10
S'AmsterdamShop'
p5944
sg12
g58
sg14
V\u0e3f28.07
p5945
sg16
S'7 gram (1/4 oz)  Northern Light AAA quality'
p5946
sg18
S'Netherlands'
p5947
sa(dp5948
g10
S'bitsack'
p5949
sg12
S'99'
p5950
sg14
V\u0e3f14.86
p5951
sg16
S'Mid-High Grade California Grown Cannabis (1/4 oz)'
p5952
sg18
S'United States of America'
p5953
sa(dp5954
g10
S'purp13'
p5955
sg12
g58
sg14
V\u0e3f146.50
p5956
sg16
S'HQ Mids (QP : 112G)'
p5957
sg18
S'USA'
p5958
sa(dp5959
g10
S'bitsack'
p5960
sg12
S'99'
p5961
sg14
V\u0e3f31.37
p5962
sg16
S'Mid-High Grade California Grown Cannabis (1/2 oz)'
p5963
sg18
S'United States of America'
p5964
sa(dp5965
g10
S'420med4u'
p5966
sg12
S'100'
p5967
sg14
V\u0e3f17.94
p5968
sg16
S'The Atom Bomb Sour Diesel Kush 1/8 3.5g'
p5969
sg18
S'United States of America'
p5970
sa(dp5971
g10
S'Holland'
p5972
sg12
S'97'
p5973
sg14
V\u0e3f36.33
p5974
sg16
V10g \u2261\u2261 P O W E R P L A N T \u2261\u2261
p5975
sg18
S'Netherlands'
p5976
sa(dp5977
g10
S'Holland'
p5978
sg12
S'97'
p5979
sg14
V\u0e3f4.62
p5980
sg16
S'1gr Power Plant, direct from grower. 5 + 1 FREE !!'
p5981
sg18
S'Netherlands'
p5982
sa(dp5983
g10
S'ExchangeService'
p5984
sg12
S'98'
p5985
sg14
V\u0e3f5.20
p5986
sg16
S'1g NLX'
p5987
sg18
S'Germany'
p5988
sa(dp5989
g10
S'Paperchasing'
p5990
sg12
S'99'
p5991
sg14
V\u0e3f14.88
p5992
sg16
S'7g Commercial Sensimellia (compressed)'
p5993
sg18
S'United States of America'
p5994
sa(dp5995
g10
S'Swazibudbud888'
p5996
sg12
S'99'
p5997
sg14
V\u0e3f11.24
p5998
sg16
S'4g - "Swazi Red" (Rooibaard) African Sativa '
p5999
sg18
S'Africa'
p6000
sa(dp6001
g10
S'ExchangeService'
p6002
sg12
S'98'
p6003
sg14
V\u0e3f16.78
p6004
sg16
S'3g Amnesia Haze'
p6005
sg18
S'Germany'
p6006
sa(dp6007
g10
S'hashuk'
p6008
sg12
S'99'
p6009
sg14
V\u0e3f27.15
p6010
sg16
S'3.5g Sour Dieselxkush AAAA+ Medical Grade *Limited'
p6011
sg18
S'United Kingdom'
p6012
sa(dp6013
g10
S'hashuk'
p6014
sg12
S'99'
p6015
sg14
V\u0e3f7.65
p6016
sg16
S'1g Sour DieselxKush AAAA+ Medical Grade *Limited*'
p6017
sg18
S'United Kingdom'
p6018
sa(dp6019
g10
S'ExchangeService'
p6020
sg12
S'98'
p6021
sg14
V\u0e3f5.70
p6022
sg16
S'1g Santa Maria'
p6023
sg18
S'germany'
p6024
sa(dp6025
g10
S'Anarcho47'
p6026
sg12
S'100'
p6027
sg14
V\u0e3f0.01
p6028
sg16
S'Leave Feedback for Out of Escrow Transactions'
p6029
sg18
S'Canada'
p6030
sa(dp6031
g10
S'420med4u'
p6032
sg12
S'100'
p6033
sg14
V\u0e3f21.96
p6034
sg16
S'*Super BOMB* Super Ogre Kush 1/8 3.5g'
p6035
sg18
S'United States of America'
p6036
sa(dp6037
g10
S'SpanishFly'
p6038
sg12
S'100'
p6039
sg14
V\u0e3f5.19
p6040
sg16
S'1g **Medical Grade** AK48'
p6041
sg18
S'Spain'
p6042
sa(dp6043
g10
S'ExchangeService'
p6044
sg12
S'98'
p6045
sg14
V\u0e3f15.98
p6046
sg16
S'3g Santa Maria'
p6047
sg18
S'Germany'
p6048
sa(dp6049
g10
S'Holland'
p6050
sg12
S'97'
p6051
sg14
V\u0e3f4.62
p6052
sg16
S'1gr Power Plant, direct from grower. 5 + 1 FREE !!'
p6053
sg18
S'Netherlands'
p6054
sa(dp6055
g10
S'Paperchasing'
p6056
sg12
S'99'
p6057
sg14
V\u0e3f9.65
p6058
sg16
S'3.5g Commercial Sensimellia (compressed)'
p6059
sg18
S'United States of America'
p6060
sa(dp6061
g10
S'Rook'
p6062
sg12
S'100'
p6063
sg14
V\u0e3f4.56
p6064
sg16
S'_Dream Wreck_ Premium Hybrid (read for pricing)'
p6065
sg18
S'US'
p6066
sa(dp6067
g10
S'TimeTraveler'
p6068
sg12
S'88'
p6069
sg14
V\u0e3f25.97
p6070
sg16
S'1/4 oz Vortex'
p6071
sg18
S'United States of America'
p6072
sa(dp6073
g10
S'Holland'
p6074
sg12
S'97'
p6075
sg14
V\u0e3f19.81
p6076
sg16
V5g  \u2261\u2261 P O W E R P L A N T \u2261\u2261
p6077
sg18
S'Netherlands'
p6078
sa(dp6079
g10
S'TimeTraveler'
p6080
sg12
S'88'
p6081
sg14
V\u0e3f27.63
p6082
sg16
S'1/4 oz White Berry'
p6083
sg18
S'United States of America'
p6084
sa(dp6085
g10
S'PostmanPot'
p6086
sg12
S'100'
p6087
sg14
V\u0e3f16.51
p6088
sg16
S'3g Cannabis'
p6089
sg18
S'Australia'
p6090
sa(dp6091
g10
S'ExchangeService'
p6092
sg12
S'98'
p6093
sg14
V\u0e3f14.80
p6094
sg16
S'3G NLX'
p6095
sg18
S'Germany'
p6096
sa(dp6097
g10
S'ExchangeService'
p6098
sg12
S'98'
p6099
sg14
V\u0e3f6.47
p6100
sg16
S'1g Amnesia Haze'
p6101
sg18
S'EU+CH'
p6102
sa(dp6103
g10
S'Holland'
p6104
sg12
S'97'
p6105
sg14
V\u0e3f4.62
p6106
sg16
V1g  \u2261\u2261 P O W E R P L A N T \u2261\u2261
p6107
sg18
S'Netherlands'
p6108
sa(dp6109
g10
S'TimeTraveler'
p6110
sg12
S'88'
p6111
sg14
V\u0e3f16.64
p6112
sg16
S'1/8th Train Wreck'
p6113
sg18
S'United States of America'
p6114
sa(dp6115
g10
S'ExchangeService'
p6116
sg12
S'98'
p6117
sg14
V\u0e3f32.52
p6118
sg16
S'6g original Amnesia Haze'
p6119
sg18
S'Germany'
p6120
sa(dp6121
g10
S'ExchangeService'
p6122
sg12
S'98'
p6123
sg14
V\u0e3f29.69
p6124
sg16
S'6g Santa Maria'
p6125
sg18
S'Germany'
p6126
sa(dp6127
g10
S'godofall'
p6128
sg12
S'98'
p6129
sg14
V\u0e3f18.16
p6130
sg16
S'1/8 oz. (3.5g) (Dank) T.N.T Kush Medical Grade'
p6131
sg18
S'United States of America'
p6132
sa(dp6133
g10
S'ExchangeService'
p6134
sg12
S'98'
p6135
sg14
V\u0e3f28.46
p6136
sg16
S'6g NLX'
p6137
sg18
S'Germany'
p6138
sa(dp6139
g10
S'420med4u'
p6140
sg12
S'100'
p6141
sg14
V\u0e3f21.99
p6142
sg16
S'*Super BOMB* Allen Wrench 1/8 3.5g'
p6143
sg18
S'United States of America'
p6144
sa(dp6145
g10
S'420med4u'
p6146
sg12
S'100'
p6147
sg14
V\u0e3f32.63
p6148
sg16
S'The Atom Bomb Sour Diesel Kush 1/4 7g'
p6149
sg18
S'United States of America'
p6150
sa(dp6151
g10
S'BusinessAsAlways'
p6152
sg12
S'93'
p6153
sg14
V\u0e3f8.26
p6154
sg16
S'1 Gram Sour Diesel'
p6155
sg18
S'USA'
p6156
sa(dp6157
g10
S'Rook'
p6158
sg12
S'100'
p6159
sg14
V\u0e3f4.79
p6160
sg16
S'_White Lighting_ *Limited* (Read for Pricing)'
p6161
sg18
S'United States of America'
p6162
sa(dp6163
g10
S'amush'
p6164
sg12
S'100'
p6165
sg14
V\u0e3f17.88
p6166
sg16
S'3g White Widow Weed '
p6167
sg18
S'Norway'
p6168
sa(dp6169
g10
S'PostmanPot'
p6170
sg12
S'100'
p6171
sg14
V\u0e3f6.60
p6172
sg16
S'1g Cannabis'
p6173
sg18
S'Australia'
p6174
sa(dp6175
g10
S'TimeTraveler'
p6176
sg12
S'88'
p6177
sg14
V\u0e3f27.74
p6178
sg16
S'1/4 oz UK Cheese'
p6179
sg18
S'United States of America'
p6180
sa(dp6181
g10
S'TimeTraveler'
p6182
sg12
S'88'
p6183
sg14
V\u0e3f27.53
p6184
sg16
S'1/4 oz Trainwreck'
p6185
sg18
S'United States of America'
p6186
sa(dp6187
g10
S'TimeTraveler'
p6188
sg12
S'88'
p6189
sg14
V\u0e3f16.65
p6190
sg16
S'1/8th Blue Berry'
p6191
sg18
S'United States of America'
p6192
sa(dp6193
g10
S'swch'
p6194
sg12
S'94'
p6195
sg14
V\u0e3f5.38
p6196
sg16
S'1g weed sample '
p6197
sg18
S'Switzerland'
p6198
sa(dp6199
g10
S'TimeTraveler'
p6200
sg12
S'88'
p6201
sg14
V\u0e3f27.58
p6202
sg16
S'1/4 oz Black Berry'
p6203
sg18
S'United States of America'
p6204
sa(dp6205
g10
S'TimeTraveler'
p6206
sg12
S'88'
p6207
sg14
V\u0e3f32.06
p6208
sg16
S'1/4 oz Bubba Kush'
p6209
sg18
S'United States of America'
p6210
sa(dp6211
g10
S'SpanishFly'
p6212
sg12
S'100'
p6213
sg14
V\u0e3f14.94
p6214
sg16
S'3g **Medical Grade** AK48'
p6215
sg18
S'Spain'
p6216
sa(dp6217
g10
S'AusBudz'
p6218
sg12
S'100'
p6219
sg14
V\u0e3f6.73
p6220
sg16
S'Aussie Kush - 1g'
p6221
sg18
S'Australia'
p6222
sa(dp6223
g10
S'Holland'
p6224
sg12
S'97'
p6225
sg14
V\u0e3f155.21
p6226
sg16
V50g \u2261\u2261 P O W E R P L A N T \u2261\u2261
p6227
sg18
S'Netherlands'
p6228
sa(dp6229
g10
S'ExchangeService'
p6230
sg12
S'98'
p6231
sg14
V\u0e3f20.83
p6232
sg16
S'3g Super Amnezia Haze'
p6233
sg18
S'Germany'
p6234
sa(dp6235
g10
S'vanillasmoke'
p6236
sg12
S'100'
p6237
sg14
V\u0e3f47.55
p6238
sg16
S'1 oz quality brick weed - ships priority mail'
p6239
sg18
S'United States of America'
p6240
sa(dp6241
g10
S'kaliforniaProducts'
p6242
sg12
S'99'
p6243
sg14
V\u0e3f16.51
p6244
sg16
S'1/8th (3.5gr) medical grade White Widow'
p6245
sg18
S'United States of America'
p6246
sa(dp6247
g10
S'BashfulBetty'
p6248
sg12
S'100'
p6249
sg14
V\u0e3f5.59
p6250
sg16
S'1g Outdoor Sensimilla + 0.2 g Fresh Bubble Hash'
p6251
sg18
S'Canada'
p6252
sa(dp6253
g10
S'TimeTraveler'
p6254
sg12
S'88'
p6255
sg14
V\u0e3f27.62
p6256
sg16
S'1/4 oz Power Kush'
p6257
sg18
S'United States of America'
p6258
sa(dp6259
g10
S'TimeTraveler'
p6260
sg12
S'88'
p6261
sg14
V\u0e3f16.65
p6262
sg16
S'1/8th of Lemon Skunk'
p6263
sg18
S'United States of America'
p6264
sa(dp6265
g10
S'ExchangeService'
p6266
sg12
S'98'
p6267
sg14
V\u0e3f38.78
p6268
sg16
S'6g Super Amnezia Haze'
p6269
sg18
S'Germany'
p6270
sa(dp6271
g10
S'ExchangeService'
p6272
sg12
S'98'
p6273
sg14
V\u0e3f7.12
p6274
sg16
S'1g Super Amnezia Haze'
p6275
sg18
S'Germany'
p6276
sa(dp6277
g10
S'TimeTraveler'
p6278
sg12
S'88'
p6279
sg14
V\u0e3f27.70
p6280
sg16
S'1/4 oz Blueberry x Northern Lights'
p6281
sg18
S'United States of America'
p6282
sa(dp6283
g10
S'Anarcho47'
p6284
sg12
S'100'
p6285
sg14
V\u0e3f14.63
p6286
sg16
S'1/8oz (3.5grams) Sample of Jack Herrer Cannabis'
p6287
sg18
S'Canada'
p6288
sa(dp6289
g10
S'420med4u'
p6290
sg12
S'100'
p6291
sg14
V\u0e3f19.40
p6292
sg16
S'*Super BOMB* Jolly Rancher 1/8 3.5g'
p6293
sg18
S'United States of America'
p6294
sa(dp6295
g10
S'Rook'
p6296
sg12
S'100'
p6297
sg14
V\u0e3f4.46
p6298
sg16
S'_Bubba Kush_ (Read for Pricing)'
p6299
sg18
S'United States of America'
p6300
sa(dp6301
g10
S'TimeTraveler'
p6302
sg12
S'88'
p6303
sg14
V\u0e3f27.66
p6304
sg16
S'1/4 oz Blue Berry'
p6305
sg18
S'United States of America'
p6306
sa(dp6307
g10
S'ExchangeService'
p6308
sg12
S'98'
p6309
sg14
V\u0e3f46.57
p6310
sg16
S'10g Santa Maria'
p6311
sg18
S'Germany'
p6312
sa(dp6313
g10
S'TimeTraveler'
p6314
sg12
S'88'
p6315
sg14
V\u0e3f16.67
p6316
sg16
S'1/8th of Black Berry'
p6317
sg18
S'United States of America'
p6318
sa(dp6319
g10
S'420med4u'
p6320
sg12
S'100'
p6321
sg14
V\u0e3f21.99
p6322
sg16
S'*Super BOMB* Headband 1/8 3.5g'
p6323
sg18
S'United States of America'
p6324
sa(dp6325
g10
S'swch'
p6326
sg12
S'94'
p6327
sg14
V\u0e3f24.42
p6328
sg16
S'4g Indoor Weed great quality'
p6329
sg18
S'Switzerland'
p6330
sa(dp6331
g10
S'TimeTraveler'
p6332
sg12
S'88'
p6333
sg14
V\u0e3f16.66
p6334
sg16
S'1/8th Afgan Kush'
p6335
sg18
S'United States of America'
p6336
sa(dp6337
g10
S'TimeTraveler'
p6338
sg12
S'88'
p6339
sg14
V\u0e3f16.65
p6340
sg16
S'1/8th Ginger Haze - Delicious flavor'
p6341
sg18
S'United States of America'
p6342
sa(dp6343
g10
S'Swazibudbud888'
p6344
sg12
S'99'
p6345
sg14
V\u0e3f61.11
p6346
sg16
S'1oz - "Swazi Red" (Rooibaard) African Sativa'
p6347
sg18
S'South Africa'
p6348
sa(dp6349
g10
S'Holland'
p6350
sg12
S'97'
p6351
sg14
V\u0e3f36.33
p6352
sg16
V10g \u2261\u2261 POWER PLANT \u2261\u2261           Sent from Belgium!
p6353
sg18
S'Belgium'
p6354
sa(dp6355
g10
S'420med4u'
p6356
sg12
S'100'
p6357
sg14
V\u0e3f20.20
p6358
sg16
S'*Super BOMB* Amnesia 1/8 3.5g'
p6359
sg18
S'United States of America'
p6360
sa(dp6361
g10
S'ExchangeService'
p6362
sg12
S'98'
p6363
sg14
V\u0e3f25.83
p6364
sg16
S'4g Super Amnezia Haze'
p6365
sg18
S'germany'
p6366
sa(dp6367
g10
S'mrouid'
p6368
sg12
S'99'
p6369
sg14
V\u0e3f77.72
p6370
sg16
S'1-Oz (28g) M39 Indica'
p6371
sg18
S'Canada'
p6372
sa(dp6373
g10
S'BusinessAsAlways'
p6374
sg12
S'93'
p6375
sg14
V\u0e3f21.47
p6376
sg16
S'1/8 OZ Sour Diesel'
p6377
sg18
S'USA'
p6378
sa(dp6379
g10
S'kaliforniaProducts'
p6380
sg12
S'99'
p6381
sg14
V\u0e3f16.51
p6382
sg16
S' 1/8th (3.5gr) medical grade Black Sativa'
p6383
sg18
S'United States of America'
p6384
sa(dp6385
g10
S'euroHASH'
p6386
sg12
g58
sg14
V\u0e3f87.04
p6387
sg16
S'Budget Weed 28g, 1oz (save $90)'
p6388
sg18
S'undeclared'
p6389
sa(dp6390
g10
S'euroHASH'
p6391
sg12
g58
sg14
V\u0e3f59.07
p6392
sg16
S'Budget Weed 14g, 1/2oz     '
p6393
sg18
S'undeclared'
p6394
sa(dp6395
g10
S'happyhippy'
p6396
sg12
g58
sg14
V\u0e3f121.02
p6397
sg16
S'1 Oz Auto AK 47 ( AK 47 / Lowryder cross)'
p6398
sg18
S'United Kingdom'
p6399
sa(dp6400
g10
S'GreenGiant'
p6401
sg12
S'100'
p6402
sg14
V\u0e3f7.76
p6403
sg16
S'1g Sample Green House Grown Strain'
p6404
sg18
S'United Kingdom'
p6405
sa(dp6406
g10
S'euroHASH'
p6407
sg12
g58
sg14
V\u0e3f111.91
p6408
sg16
S'Burmese Gods Bud 14g, 1/2oz'
p6409
sg18
S'undeclared'
p6410
sa(dp6411
g10
S'euroHASH'
p6412
sg12
g58
sg14
V\u0e3f175.64
p6413
sg16
S'OG Kush 28g, 1oz (save $70)'
p6414
sg18
S'undeclared'
p6415
sa(dp6416
g10
S'euroHASH'
p6417
sg12
g58
sg14
V\u0e3f207.04
p6418
sg16
S'Burmese Gods Bud 28g, 1oz (save $60)'
p6419
sg18
S'undeclared'
p6420
sa(dp6421
g10
S'KJohn'
p6422
sg12
g58
sg14
V\u0e3f42.38
p6423
sg16
S'7 grams of  any selection of premium strain buds'
p6424
sg18
S'Canada'
p6425
sa(dp6426
g10
S'euroHASH'
p6427
sg12
g58
sg14
V\u0e3f184.97
p6428
sg16
S'Jamaican Sativa 28g, 1oz'
p6429
sg18
S'undeclared'
p6430
sa(dp6431
g10
S'KJohn'
p6432
sg12
g58
sg14
V\u0e3f40.82
p6433
sg16
S'7 grams Ambrosia bud'
p6434
sg18
S'Canada'
p6435
sa(dp6436
g10
S'KJohn'
p6437
sg12
g58
sg14
V\u0e3f74.22
p6438
sg16
S'14 grams Jack Herer bud'
p6439
sg18
S'Canada'
p6440
sa(dp6441
g10
S'AmsterdamShop'
p6442
sg12
g58
sg14
V\u0e3f36.33
p6443
sg16
S'10gr Northern Light AAA quality'
p6444
sg18
S'Netherlands'
p6445
sa(dp6446
g10
S'AmsterdamShop'
p6447
sg12
g58
sg14
V\u0e3f19.48
p6448
sg16
S'5gr Northern Light AAA quality'
p6449
sg18
S'Netherlands'
p6450
sa(dp6451
g10
S'AmsterdamShop'
p6452
sg12
g58
sg14
V\u0e3f4.46
p6453
sg16
S'1gr Northern Light AAA quality'
p6454
sg18
S'Netherlands'
p6455
sa(dp6456
g10
S'godofall'
p6457
sg12
S'98'
p6458
sg14
V\u0e3f33.35
p6459
sg16
S'1/4 oz. (7g) (Dank) T.N.T Kush Medical Grade'
p6460
sg18
S'United States of America'
p6461
sa(dp6462
g10
S'KJohn'
p6463
sg12
g58
sg14
V\u0e3f38.45
p6464
sg16
S'7 grams Premium Jamaican Sativa'
p6465
sg18
S'Canada'
p6466
sa(dp6467
g10
S'milehighmedicine'
p6468
sg12
S'100'
p6469
sg14
V\u0e3f51.52
p6470
sg16
S'Hindu Kush half oz'
p6471
sg18
S'United States of America'
p6472
sa(dp6473
g10
S'milehighmedicine'
p6474
sg12
S'100'
p6475
sg14
V\u0e3f51.52
p6476
sg16
S'Wonder Diesel  half oz'
p6477
sg18
S'United States of America'
p6478
sa(dp6479
g10
S'milehighmedicine'
p6480
sg12
S'100'
p6481
sg14
V\u0e3f51.52
p6482
sg16
S'White Rhino half oz'
p6483
sg18
S'United States of America'
p6484
sa(dp6485
g10
S'milehighmedicine'
p6486
sg12
S'100'
p6487
sg14
V\u0e3f51.52
p6488
sg16
S'Tangelo Haze  half oz'
p6489
sg18
S'United States of America'
p6490
sa(dp6491
g10
S'milehighmedicine'
p6492
sg12
S'100'
p6493
sg14
V\u0e3f51.52
p6494
sg16
S'Mental Haze half oz'
p6495
sg18
S'United States of America'
p6496
sa(dp6497
g10
S'tweetb'
p6498
sg12
S'100'
p6499
sg14
V\u0e3f21.47
p6500
sg16
S'+Purple Sour Diesel+---3.5g'
p6501
sg18
S'us'
p6502
sa(dp6503
g10
S'tweetb'
p6504
sg12
S'100'
p6505
sg14
V\u0e3f21.47
p6506
sg16
S'+Tahoe OG Kush+---3.5g'
p6507
sg18
S'us'
p6508
sa(dp6509
g10
S'tweetb'
p6510
sg12
S'100'
p6511
sg14
V\u0e3f7.60
p6512
sg16
S'+Purple Sour Diesel+---1g'
p6513
sg18
S'us'
p6514
sa(dp6515
g10
S'tweetb'
p6516
sg12
S'100'
p6517
sg14
V\u0e3f21.47
p6518
sg16
S'+Skywalker OG Kush+---3.5g'
p6519
sg18
S'us'
p6520
sa(dp6521
g10
S'tweetb'
p6522
sg12
S'100'
p6523
sg14
V\u0e3f7.60
p6524
sg16
S'+Skywalker OG Kush+---1g'
p6525
sg18
S'us'
p6526
sa(dp6527
g10
S'tweetb'
p6528
sg12
S'100'
p6529
sg14
V\u0e3f7.60
p6530
sg16
S'+Tahoe OG Kush+---1g'
p6531
sg18
S'us'
p6532
sa(dp6533
g10
S'tweetb'
p6534
sg12
S'100'
p6535
sg14
V\u0e3f21.47
p6536
sg16
S'+Grapefruit+---3.5g'
p6537
sg18
S'us'
p6538
sa(dp6539
g10
S'tweetb'
p6540
sg12
S'100'
p6541
sg14
V\u0e3f7.60
p6542
sg16
S'+Grapefruit+---1g'
p6543
sg18
S'us'
p6544
sa(dp6545
g10
S'purp13'
p6546
sg12
g58
sg14
V\u0e3f23.12
p6547
sg16
S'HQ Mids (1/2oz : 14G)'
p6548
sg18
S'USA'
p6549
sa(dp6550
g10
S'purp13'
p6551
sg12
g58
sg14
V\u0e3f13.21
p6552
sg16
S'HQ Mids (1/4th 7G)'
p6553
sg18
S'USA'
p6554
sa(dp6555
g10
S'purp13'
p6556
sg12
g58
sg14
V\u0e3f7.27
p6557
sg16
S'HQ Mids (1/8th : 3.5G) '
p6558
sg18
S'USA'
p6559
sa(dp6560
g10
S'purp13'
p6561
sg12
g58
sg14
V\u0e3f39.63
p6562
sg16
S'HQ Mids (1oz : 28G)'
p6563
sg18
S'USA'
p6564
sa(dp6565
g10
S'420med4u'
p6566
sg12
S'100'
p6567
sg14
V\u0e3f14.93
p6568
sg16
S'*Mid Grade* Grand Daddy Purple *GDP* 1/8 3.5g'
p6569
sg18
S'United States of America'
p6570
sa(dp6571
g10
S'kaliforniaProducts'
p6572
sg12
S'99'
p6573
sg14
V\u0e3f70.34
p6574
sg16
S'custom order for pullinbreezy'
p6575
sg18
S'United States of America'
p6576
saaa(lp6577
(lp6578
S'Cannabis'
p6579
aS'Synthetic'
p6580
aa(lp6581
(dp6582
g10
S'etizolam'
p6583
sg12
S'98'
p6584
sg14
V\u0e3f2.31
p6585
sg16
S'100mg JWH-122 powder'
p6586
sg18
S'United States of America'
p6587
sa(dp6588
g10
S'Sunshine'
p6589
sg12
S'97'
p6590
sg14
V\u0e3f3.56
p6591
sg16
S'Smoking blend 3gr'
p6592
sg18
S'EU, Netherlands'
p6593
sa(dp6594
g10
S'Missit'
p6595
sg12
S'83'
p6596
sg14
V\u0e3f1.65
p6597
sg16
S'JWH-019 20mg Lollipop'
p6598
sg18
S'US'
p6599
sa(dp6600
g10
S'striker'
p6601
sg12
g58
sg14
V\u0e3f19.12
p6602
sg16
S'9g of Potent Incense Blend (JWH 122/210)'
p6603
sg18
S'US'
p6604
sa(dp6605
g10
S'striker'
p6606
sg12
g58
sg14
V\u0e3f31.86
p6607
sg16
S'28g of Potent Incense Blend (JWH 122/210)'
p6608
sg18
S'US'
p6609
sa(dp6610
g10
S'etizolam'
p6611
sg12
S'98'
p6612
sg14
V\u0e3f13.99
p6613
sg16
S'1000mg 99% pure JWH-122 powder'
p6614
sg18
S'US'
p6615
saaa(lp6616
(lp6617
S'Cannabis'
p6618
aS'Concentrates'
p6619
aa(lp6620
(dp6621
g10
S'Rook'
p6622
sg12
S'100'
p6623
sg14
V\u0e3f18.16
p6624
sg16
S'Super Potent Honeybud!  -Techno- (2g)'
p6625
sg18
S'United States of America'
p6626
sa(dp6627
g10
S'Rook'
p6628
sg12
S'100'
p6629
sg14
V\u0e3f21.47
p6630
sg16
S'Super Potent Honeybud! -New York Diesel- (2g) '
p6631
sg18
S'US'
p6632
sa(dp6633
g10
S'GreenGiant'
p6634
sg12
S'100'
p6635
sg14
V\u0e3f32.20
p6636
sg16
S'1g Purple Kush Budder ****POTENT***'
p6637
sg18
S'United Kingdom'
p6638
sa(dp6639
g10
S'GreenGiant'
p6640
sg12
S'100'
p6641
sg14
V\u0e3f32.20
p6642
sg16
S'1g Red Cherry Kush Budder'
p6643
sg18
S'United Kingdom'
p6644
sa(dp6645
g10
S'GreenGiant'
p6646
sg12
S'100'
p6647
sg14
V\u0e3f32.20
p6648
sg16
S'1g Cookies Budder'
p6649
sg18
S'United Kingdom'
p6650
sa(dp6651
g10
S'Julio'
p6652
sg12
S'100'
p6653
sg14
V\u0e3f6.52
p6654
sg16
S'Fire Kush Kief 1g'
p6655
sg18
S'United States of America'
p6656
sa(dp6657
g10
S'BudderMan'
p6658
sg12
g58
sg14
V\u0e3f12.38
p6659
sg16
S'.65 Grams Premium Master Kush Budder'
p6660
sg18
S'United States of America'
p6661
sa(dp6662
g10
S'BudderMan'
p6663
sg12
g58
sg14
V\u0e3f16.51
p6664
sg16
S'2ml Master Kush Budder Electronic Cigarette Liquid'
p6665
sg18
S'United States of America'
p6666
sa(dp6667
g10
S'BudderMan'
p6668
sg12
g58
sg14
V\u0e3f23.12
p6669
sg16
S'1.3 Grams Premium Master Kush Budder'
p6670
sg18
S'United States of America'
p6671
sa(dp6672
g10
S'GreenGiant'
p6673
sg12
S'100'
p6674
sg14
V\u0e3f29.72
p6675
sg16
S'1g Purple train Wreck Taffy'
p6676
sg18
S'United Kingdom'
p6677
sa(dp6678
g10
S'vortexmilkman'
p6679
sg12
S'98'
p6680
sg14
V\u0e3f27.35
p6681
sg16
S'(1g) OG Wax'
p6682
sg18
S'USA'
p6683
saaa(lp6684
(lp6685
S'Cannabis'
p6686
aS'Edibles'
p6687
aa(lp6688
(dp6689
g10
S'vortexmilkman'
p6690
sg12
S'98'
p6691
sg14
V\u0e3f19.25
p6692
sg16
S'5-pack of Medical Marijuana LOLLIPOPS'
p6693
sg18
S'undeclared'
p6694
sa(dp6695
g10
S'WillyWonka'
p6696
sg12
S'99'
p6697
sg14
V\u0e3f19.81
p6698
sg16
S'25 Cannabis Hard Candies'
p6699
sg18
S'undeclared'
p6700
sa(dp6701
g10
S'vicious86'
p6702
sg12
S'100'
p6703
sg14
V\u0e3f10.57
p6704
sg16
S'Marijuana Butter Oatmeal Cookies Qty. 2'
p6705
sg18
S'United States of America'
p6706
sa(dp6707
g10
S'vicious86'
p6708
sg12
S'100'
p6709
sg14
V\u0e3f5.50
p6710
sg16
S'1 Marijuanabutter Oatmeal Cookie'
p6711
sg18
S'undeclared'
p6712
sa(dp6713
g10
S'ggc'
p6714
sg12
S'100'
p6715
sg14
V\u0e3f23.22
p6716
sg16
S'5 Marijuana Butter Chocolate Chip Cookies'
p6717
sg18
S'Anywhere'
p6718
sa(dp6719
g10
S'vicious86'
p6720
sg12
S'100'
p6721
sg14
V\u0e3f18.16
p6722
sg16
S'Marijuanabutter Oatmeal Cookies Qty 4'
p6723
sg18
S'US  '
p6724
sa(dp6725
g10
S'BashfulBetty'
p6726
sg12
S'100'
p6727
sg14
V\u0e3f37.98
p6728
sg16
S'250g (50 doses) Marijuana Butter'
p6729
sg18
S'Canada'
p6730
sa(dp6731
g10
S'oso'
p6732
sg12
S'100'
p6733
sg14
V\u0e3f33.02
p6734
sg16
S'Liquid THC .096g/ml 1oz.   *3 Bottle Special*'
p6735
sg18
S'undeclared'
p6736
sa(dp6737
g10
S'oso'
p6738
sg12
S'100'
p6739
sg14
V\u0e3f18.16
p6740
sg16
S'Liquid THC .192 g/ml 1oz.  Alaskan ThunderFuck'
p6741
sg18
S'undeclared'
p6742
sa(dp6743
g10
S'Sinsemillaman'
p6744
sg12
S'95'
p6745
sg14
V\u0e3f9.98
p6746
sg16
S'Budder King Budder Popcorn! (1oz bag)'
p6747
sg18
S'United States of America'
p6748
sa(dp6749
g10
S'BashfulBetty'
p6750
sg12
S'100'
p6751
sg14
V\u0e3f5.61
p6752
sg16
S'20g ( 4 doses) Marijuana Butter'
p6753
sg18
S'Canada'
p6754
saaa(lp6755
(lp6756
S'Benzos'
p6757
aa(lp6758
(dp6759
g10
S'Pharmville'
p6760
sg12
S'99'
p6761
sg14
V\u0e3f13.05
p6762
sg16
S'Xanax 2mg (Alprazolam) 10 pc pack $4.00/ea'
p6763
sg18
S'United States of America'
p6764
sa(dp6765
g10
S'Pharmville'
p6766
sg12
S'99'
p6767
sg14
V\u0e3f11.77
p6768
sg16
S'Valium 10mg (Roche) 20 pc pack $1.75/ea'
p6769
sg18
S'United States of America'
p6770
sa(dp6771
g10
S'3dames'
p6772
sg12
S'100'
p6773
sg14
V\u0e3f13.09
p6774
sg16
S'Alprazolam (Xanax) 1 mg x 20'
p6775
sg18
S'worldwide'
p6776
sa(dp6777
g10
S'Pharmville'
p6778
sg12
S'99'
p6779
sg14
V\u0e3f6.72
p6780
sg16
S'Valium 10mg (Roche) 10 pc pack $2.00/ea'
p6781
sg18
S'United States of America'
p6782
sa(dp6783
g10
S'Pharmville'
p6784
sg12
S'99'
p6785
sg14
V\u0e3f24.52
p6786
sg16
S'Xanax 2mg (Alprazolam) 20 pc pack $3.75/ea'
p6787
sg18
S'United States of America'
p6788
sa(dp6789
g10
S'3dames'
p6790
sg12
S'100'
p6791
sg14
V\u0e3f11.45
p6792
sg16
S'Lorazepam (Ativan) 1 mg x 30'
p6793
sg18
S'worldwide'
p6794
sa(dp6795
g10
S'Pharmville'
p6796
sg12
S'99'
p6797
sg14
V\u0e3f25.11
p6798
sg16
S'Valium 10mg (Roche) 50 pc pack $1.50/ea'
p6799
sg18
S'United States of America'
p6800
sa(dp6801
g10
S'PharmaKarma'
p6802
sg12
S'98'
p6803
sg14
V\u0e3f2.31
p6804
sg16
S'Etizolam - Superior Quality!   1mg tablets (5 pk)'
p6805
sg18
S'US'
p6806
sa(dp6807
g10
S'generalm3sS'
p6808
sg12
S'100'
p6809
sg14
V\u0e3f11.20
p6810
sg16
S'20x 10mg Diazepam'
p6811
sg18
S'United Kingdom'
p6812
sa(dp6813
g10
S'generalm3sS'
p6814
sg12
S'100'
p6815
sg14
V\u0e3f5.67
p6816
sg16
S'10x 10mg Diazepam'
p6817
sg18
S'UK'
p6818
sa(dp6819
g10
S'3dames'
p6820
sg12
S'100'
p6821
sg14
V\u0e3f15.55
p6822
sg16
S'Clonazepam (Klonopin) 2mg x 20 (no continental EU)'
p6823
sg18
S'worldwide'
p6824
sa(dp6825
g10
S'3dames'
p6826
sg12
S'100'
p6827
sg14
V\u0e3f14.53
p6828
sg16
S'Diazepam (Valium) 10 mg x 20'
p6829
sg18
S'worldwide'
p6830
sa(dp6831
g10
S'pharma1'
p6832
sg12
S'93'
p6833
sg14
V\u0e3f20.34
p6834
sg16
S'Generic Alprazolam (Xanax) 0.5mg x 100'
p6835
sg18
S'UK'
p6836
sa(dp6837
g10
S'bigunit'
p6838
sg12
S'99'
p6839
sg14
V\u0e3f9.79
p6840
sg16
S'Clonazepam (Klonopin) 1 mg tab x 10'
p6841
sg18
S'East Coast US'
p6842
sa(dp6843
g10
S'spotter'
p6844
sg12
S'100'
p6845
sg14
V\u0e3f3.22
p6846
sg16
S' 10   1mg Etizolam pills'
p6847
sg18
S'us'
p6848
sa(dp6849
g10
S'3dames'
p6850
sg12
S'100'
p6851
sg14
V\u0e3f30.19
p6852
sg16
S'Clonazepam (Klonopin) 2mg x 50 (no continental EU)'
p6853
sg18
S'worldwide'
p6854
sa(dp6855
g10
S'PaythePiper'
p6856
sg12
S'99'
p6857
sg14
V\u0e3f24.46
p6858
sg16
S'2mg Xanax Bars!!! x 20 pills/$3.60 each'
p6859
sg18
S'United States of America'
p6860
sa(dp6861
g10
S'PharmaKarma'
p6862
sg12
S'98'
p6863
sg14
V\u0e3f0.58
p6864
sg16
S'Etizolam - Superior Quality!   1mg tablets '
p6865
sg18
S'US'
p6866
sa(dp6867
g10
S'3dames'
p6868
sg12
S'100'
p6869
sg14
V\u0e3f27.55
p6870
sg16
S'Alprazolam (Xanax) 1 mg x 50'
p6871
sg18
S'worldwide'
p6872
sa(dp6873
g10
S'Missit'
p6874
sg12
S'83'
p6875
sg14
V\u0e3f0.86
p6876
sg16
S'SAMPLE 1 x 1mg Etizolam ( Blister Pack)'
p6877
sg18
S'US'
p6878
sa(dp6879
g10
S'Missit'
p6880
sg12
S'83'
p6881
sg14
V\u0e3f1.65
p6882
sg16
S'1 x 2mg Loose Clonazepam (Roche) Tablet'
p6883
sg18
S'US'
p6884
sa(dp6885
g10
S'PharmaKarma'
p6886
sg12
S'98'
p6887
sg14
V\u0e3f0.66
p6888
sg16
S'Valium (diazepam) by Roche 10mg'
p6889
sg18
S'US'
p6890
sa(dp6891
g10
S'pharma1'
p6892
sg12
S'93'
p6893
sg14
V\u0e3f17.85
p6894
sg16
S'Diazepam 2.5mg Generic'
p6895
sg18
S'UK'
p6896
sa(dp6897
g10
S'Missit'
p6898
sg12
S'83'
p6899
sg14
V\u0e3f3.30
p6900
sg16
S'5 x 1mg Etizolam Tablet (1/2 Strip - Blister Pack)'
p6901
sg18
S'US'
p6902
sa(dp6903
g10
S'generalm3sS'
p6904
sg12
S'100'
p6905
sg14
V\u0e3f24.96
p6906
sg16
S'50x 10mg Diazepam'
p6907
sg18
S'United Kingdom'
p6908
sa(dp6909
g10
S'N0thing'
p6910
sg12
S'100'
p6911
sg14
V\u0e3f7.60
p6912
sg16
S'5 x 2mg Xanax Bar White'
p6913
sg18
S'United States of America'
p6914
sa(dp6915
g10
S'Missit'
p6916
sg12
S'83'
p6917
sg14
V\u0e3f28.07
p6918
sg16
S'1 Box Etizolam (100 Pills)'
p6919
sg18
S'US'
p6920
sa(dp6921
g10
S'3dames'
p6922
sg12
S'100'
p6923
sg14
V\u0e3f17.65
p6924
sg16
S'Midazolam (Dormicum) 7.5 mg x 10'
p6925
sg18
S'worldwide'
p6926
sa(dp6927
g10
S'auto43'
p6928
sg12
S'99'
p6929
sg14
V\u0e3f7.08
p6930
sg16
S'5 x 2mg Alprazolam (generic Xanax)'
p6931
sg18
S'USA'
p6932
sa(dp6933
g10
S'richierich302'
p6934
sg12
S'100'
p6935
sg14
V\u0e3f4.97
p6936
sg16
S'2mg Diazepam x14 blister strip (Generic Valium)'
p6937
sg18
S'United Kingdom'
p6938
sa(dp6939
g10
S'3dames'
p6940
sg12
S'100'
p6941
sg14
V\u0e3f17.86
p6942
sg16
S'Lorazepam (Ativan) 1 mg x 50'
p6943
sg18
S'worldwide'
p6944
sa(dp6945
g10
S'Missit'
p6946
sg12
S'83'
p6947
sg14
V\u0e3f6.61
p6948
sg16
S'10 x 1mg Etizolam (1 Strip - Blister Pack)'
p6949
sg18
S'US'
p6950
sa(dp6951
g10
S'pharma1'
p6952
sg12
S'93'
p6953
sg14
V\u0e3f12.42
p6954
sg16
S'Estazolam 1mg x 100'
p6955
sg18
S'UK'
p6956
sa(dp6957
g10
S'AusBudz'
p6958
sg12
S'100'
p6959
sg14
V\u0e3f1.49
p6960
sg16
S'Xanax 1mg - Single Tablets'
p6961
sg18
S'Australia'
p6962
sa(dp6963
g10
S'bitsack'
p6964
sg12
S'99'
p6965
sg14
V\u0e3f14.22
p6966
sg16
S'2mg Xanax Alprazolam FullBars (10 pills) '
p6967
sg18
S'United States of America'
p6968
sa(dp6969
g10
S'sildenafil'
p6970
sg12
S'100'
p6971
sg14
V\u0e3f42.93
p6972
sg16
S'100ml Midazolam (DORMICUM) 2mg/ml >>liquid!<<'
p6973
sg18
S'Germany'
p6974
sa(dp6975
g10
S'sildenafil'
p6976
sg12
S'100'
p6977
sg14
V\u0e3f16.51
p6978
sg16
S'>>> 10x ZOPICLON 7,5mg <<< '
p6979
sg18
S'Germany'
p6980
sa(dp6981
g10
S'sildenafil'
p6982
sg12
S'100'
p6983
sg14
V\u0e3f42.60
p6984
sg16
S'20x Lendormin (BROTIZOLAM) 0,25mg'
p6985
sg18
S'Germany'
p6986
sa(dp6987
g10
S'PharmaKarma'
p6988
sg12
S'98'
p6989
sg14
V\u0e3f9.90
p6990
sg16
S'Diazepam 10mg - Terapia (Ranbaxy) (20)'
p6991
sg18
S'US'
p6992
sa(dp6993
g10
S'PharmaKarma'
p6994
sg12
S'98'
p6995
sg14
V\u0e3f0.66
p6996
sg16
S'Diazepam 10mg - Terapia (Ranbaxy)'
p6997
sg18
S'US'
p6998
sa(dp6999
g10
S'Ivory'
p7000
sg12
S'98'
p7001
sg14
V\u0e3f5.40
p7002
sg16
S'10 Strip x 10mg Roche Valium Blistered'
p7003
sg18
S'United Kingdom'
p7004
sa(dp7005
g10
S'PharmaKarma'
p7006
sg12
S'98'
p7007
sg14
V\u0e3f30.87
p7008
sg16
S'Etizolam - Superior Quality! 1mg Box (100 units)'
p7009
sg18
S'US'
p7010
sa(dp7011
g10
S'Pharmville'
p7012
sg12
S'99'
p7013
sg14
V\u0e3f57.08
p7014
sg16
S'Xanax 2mg (Alprazolam) 50 pc pack $3.50/ea'
p7015
sg18
S'United States of America'
p7016
sa(dp7017
g10
S'3dames'
p7018
sg12
S'100'
p7019
sg14
V\u0e3f10.92
p7020
sg16
S'Clonazepam (Klonopin) 2mg x 10 (no continental EU)'
p7021
sg18
S'worldwide'
p7022
sa(dp7023
g10
S'slylinah'
p7024
sg12
g58
sg14
V\u0e3f6.68
p7025
sg16
S'7 x 5mg Olanzapine tablets'
p7026
sg18
S'Australia'
p7027
sa(dp7028
g10
S'Pharmville'
p7029
sg12
S'99'
p7030
sg14
V\u0e3f97.77
p7031
sg16
S'Xanax 2mg (Alprazolam) 100 pc pack $3.00/ea'
p7032
sg18
S'United States of America'
p7033
sa(dp7034
g10
S'etizolam'
p7035
sg12
S'98'
p7036
sg14
V\u0e3f329.90
p7037
sg16
S'1mg etizolam tablets'
p7038
sg18
S'US'
p7039
sa(dp7040
g10
S'bitsack'
p7041
sg12
S'99'
p7042
sg14
V\u0e3f112.28
p7043
sg16
S'BULK: 2mg Xanax Alprazolam FullBars (100 pills) '
p7044
sg18
S'United States of America'
p7045
sa(dp7046
g10
S'SmileTabs'
p7047
sg12
g58
sg14
V\u0e3f45.94
p7048
sg16
S'90 Pills 2mg Alprazolam Pex-2 Brand ( Xanax )'
p7049
sg18
S'undeclared'
p7050
sa(dp7051
g10
S'CREAM'
p7052
sg12
S'100'
p7053
sg14
V\u0e3f0.67
p7054
sg16
S'[CREAM] U.S. Clonazepam (1mg) (1ct)'
p7055
sg18
S'undeclared'
p7056
sa(dp7057
g10
S'SmileTabs'
p7058
sg12
g58
sg14
V\u0e3f18.57
p7059
sg16
S'Valium 10mg Diazepam x 40 pills'
p7060
sg18
S'undeclared'
p7061
sa(dp7062
g10
S'sildenafil'
p7063
sg12
S'100'
p7064
sg14
V\u0e3f29.72
p7065
sg16
V10x >>> FLUNITRAZEPAM <<<  1mg  (Roofies)
p7066
sg18
S'Germany'
p7067
sa(dp7068
g10
S'etizolam'
p7069
sg12
S'98'
p7070
sg14
V\u0e3f6.60
p7071
sg16
S'Twelve (12) etizolam 1mg tablets'
p7072
sg18
S'United States of America'
p7073
sa(dp7074
g10
S'SmileTabs'
p7075
sg12
g58
sg14
V\u0e3f10.54
p7076
sg16
S'12 tabs Clonazepam Rivotril 2mg Klonopin '
p7077
sg18
S'United States of America'
p7078
sa(dp7079
g10
S'TheUsualSuspect'
p7080
sg12
S'100'
p7081
sg14
V\u0e3f9.91
p7082
sg16
S'Alprazolam Generic Xanax .5mg GG 257 - 30 Tablets'
p7083
sg18
S'United States of America'
p7084
sa(dp7085
g10
S'SmileTabs'
p7086
sg12
g58
sg14
V\u0e3f6.25
p7087
sg16
S'Lexotanil Bromazepam 3mg 10 Pills'
p7088
sg18
S'United States of America'
p7089
sa(dp7090
g10
S'CoinStar'
p7091
sg12
g58
sg14
V\u0e3f92.47
p7092
sg16
S'Roche 2mg 100ct Klonopin SEALED BOTTLE! '
p7093
sg18
S'United States of America'
p7094
sa(dp7095
g10
S'SmileTabs'
p7096
sg12
g58
sg14
V\u0e3f6.59
p7097
sg16
S'10 Pills 1mg Alprazolam (generic xanax) by Asimax'
p7098
sg18
S'United States of America'
p7099
sa(dp7100
g10
S'etizolam'
p7101
sg12
S'98'
p7102
sg14
V\u0e3f16.24
p7103
sg16
S'30 1mg etizolam tablets'
p7104
sg18
S'United States of America'
p7105
sa(dp7106
g10
S'reich'
p7107
sg12
S'100'
p7108
sg14
V\u0e3f2.10
p7109
sg16
S'Etizolam Powder 10mg'
p7110
sg18
S'United Kingdom'
p7111
sa(dp7112
g10
S'3dames'
p7113
sg12
S'100'
p7114
sg14
V\u0e3f30.55
p7115
sg16
S'Diazepam (Valium) 10 mg x 50'
p7116
sg18
S'worldwide'
p7117
sa(dp7118
g10
S'sildenafil'
p7119
sg12
S'100'
p7120
sg14
V\u0e3f1.98
p7121
sg16
S'SAMPLE! Lorazepam (ATIVAN/TAVOR) 1mg Pill'
p7122
sg18
S'Germany'
p7123
sa(dp7124
g10
S'listentothemusic'
p7125
sg12
S'98'
p7126
sg14
V\u0e3f1.16
p7127
sg16
S'Ativan (Lorazepam)  (Actavis Brand) 2MG'
p7128
sg18
S'United States of America'
p7129
sa(dp7130
g10
S'generalm3sS'
p7131
sg12
S'100'
p7132
sg14
V\u0e3f41.38
p7133
sg16
S'100x 10mg Diazepam'
p7134
sg18
S'UK'
p7135
sa(dp7136
g10
S'Missit'
p7137
sg12
S'83'
p7138
sg14
V\u0e3f14.86
p7139
sg16
S'1g Phenazepam'
p7140
sg18
S'US'
p7141
sa(dp7142
g10
S'davidd'
p7143
sg12
S'99'
p7144
sg14
V\u0e3f2.97
p7145
sg16
S'10 x 10mg Buspar Pills (Anti-anxiety)'
p7146
sg18
S'USA'
p7147
sa(dp7148
g10
S'direwolf'
p7149
sg12
S'100'
p7150
sg14
V\u0e3f9.25
p7151
sg16
S'Clonazepam 10*1 mg US to US'
p7152
sg18
S'US'
p7153
sa(dp7154
g10
S'bigblack'
p7155
sg12
g58
sg14
V\u0e3f6.98
p7156
sg16
S'Generic Xanax Bars 2mg (5pc.) ***3$ A PILL***'
p7157
sg18
S'US'
p7158
sa(dp7159
g10
S'CoinStar'
p7160
sg12
g58
sg14
V\u0e3f0.97
p7161
sg16
S'2mg Klonopin '
p7162
sg18
S'United States of America'
p7163
sa(dp7164
g10
S'sildenafil'
p7165
sg12
S'100'
p7166
sg14
V\u0e3f21.47
p7167
sg16
S'>>> 10x Oxazepam 10mg <<<'
p7168
sg18
S'Germany'
p7169
sa(dp7170
g10
S'sildenafil'
p7171
sg12
S'100'
p7172
sg14
V\u0e3f2.97
p7173
sg16
S'SAMPLE! >>> 1x Oxazepam 10mg <<<'
p7174
sg18
S'Germany'
p7175
sa(dp7176
g10
S'etizolam'
p7177
sg12
S'98'
p7178
sg14
V\u0e3f42.90
p7179
sg16
S'100 etizolam 1mg tablets'
p7180
sg18
S'United States of America'
p7181
sa(dp7182
g10
S'sildenafil'
p7183
sg12
S'100'
p7184
sg14
V\u0e3f25.10
p7185
sg16
S'>>> 10x Tetrazepam 50mg <<<'
p7186
sg18
S'Germany'
p7187
sa(dp7188
g10
S'sildenafil'
p7189
sg12
S'100'
p7190
sg14
V\u0e3f31.04
p7191
sg16
S'>>> 20x ZOLPIDEM 5mg <<<  (Ambien, Xolnox)'
p7192
sg18
S'Germany'
p7193
sa(dp7194
g10
S'sildenafil'
p7195
sg12
S'100'
p7196
sg14
V\u0e3f31.04
p7197
sg16
S'>>> 20x Zopiclon 7,5mg <<<'
p7198
sg18
S'Germany'
p7199
sa(dp7200
g10
S'sildenafil'
p7201
sg12
S'100'
p7202
sg14
V\u0e3f25.10
p7203
sg16
S'25ml Diazepam 10mg/ml >>> liquid <<<'
p7204
sg18
S'Germany'
p7205
saaa(lp7206
(lp7207
S'Opiods'
p7208
aa(lp7209
(dp7210
g10
S'sildenafil'
p7211
sg12
S'100'
p7212
sg14
V\u0e3f37.98
p7213
sg16
S'Fentanyl patch 25mcg per hour'
p7214
sg18
S'Germany'
p7215
sa(dp7216
g10
S'sildenafil'
p7217
sg12
S'100'
p7218
sg14
V\u0e3f18.49
p7219
sg16
S'10ml TRAMADOL 100mg/ml >>> liquid <<<'
p7220
sg18
S'Germany'
p7221
sa(dp7222
g10
S'sildenafil'
p7223
sg12
S'100'
p7224
sg14
V\u0e3f17.83
p7225
sg16
S'Tramadol (TRAMADOL HCL) 100mg Pills 10x'
p7226
sg18
S'Germany'
p7227
sa(dp7228
g10
S'sildenafil'
p7229
sg12
S'100'
p7230
sg14
V\u0e3f25.10
p7231
sg16
S'10 x Tramadol (TRAMADOL HCL) >>> 200mg/each <<<'
p7232
sg18
S'Germany'
p7233
sa(dp7234
g10
S'sildenafil'
p7235
sg12
S'100'
p7236
sg14
V\u0e3f16.51
p7237
sg16
S'30ml DHC Dihydrocodeine 21.2mg >>> liquid <<<'
p7238
sg18
S'Germany'
p7239
sa(dp7240
g10
S'vicious86'
p7241
sg12
S'100'
p7242
sg14
V\u0e3f3.44
p7243
sg16
S'Afghani White Opium Poppy Seeds 100 Count'
p7244
sg18
S'US  '
p7245
sa(dp7246
g10
S'sildenafil'
p7247
sg12
S'100'
p7248
sg14
V\u0e3f18.49
p7249
sg16
S'30ml DHC Dihydrocodeine 21,72mg/ml >>> liquid <<<'
p7250
sg18
S'Germany'
p7251
sa(dp7252
g10
S'vicodin'
p7253
sg12
S'99'
p7254
sg14
V\u0e3f1.04
p7255
sg16
S'550mg Naproxen Sodium - Opiate Potentiator'
p7256
sg18
S'United States of America'
p7257
sa(dp7258
g10
S'3dames'
p7259
sg12
S'100'
p7260
sg14
V\u0e3f9.28
p7261
sg16
S'Tramadol (Ultram) 50 mg x 25'
p7262
sg18
S'worldwide'
p7263
sa(dp7264
g10
S'toyotaman'
p7265
sg12
S'100'
p7266
sg14
V\u0e3f1.41
p7267
sg16
S'IR Opiod Dihydrocodeine DF118 40mg  PURE DHC x 1'
p7268
sg18
S'United States of America'
p7269
sa(dp7270
g10
S'spirit'
p7271
sg12
S'100'
p7272
sg14
V\u0e3f6.80
p7273
sg16
S'Papaver Somniferum  l Elite  20% Morphine'
p7274
sg18
S'undeclared'
p7275
sa(dp7276
g10
S'free willy'
p7277
sg12
S'100'
p7278
sg14
V\u0e3f22.19
p7279
sg16
S'UK gear half g'
p7280
sg18
S'United Kingdom'
p7281
sa(dp7282
g10
S'PharmacyX'
p7283
sg12
S'100'
p7284
sg14
V\u0e3f70.75
p7285
sg16
S'Morphine Sulfate 100mg ER *Crushable* tablets X 5'
p7286
sg18
S'United States of America'
p7287
sa(dp7288
g10
S'PillowTalk'
p7289
sg12
S'98'
p7290
sg14
V\u0e3f66.04
p7291
sg16
S'High Quality Heroin 2 gram'
p7292
sg18
S'Netherlands'
p7293
sa(dp7294
g10
S'nucleo'
p7295
sg12
g58
sg14
V\u0e3f54.18
p7296
sg16
S'UoGdL 1, 1g'
p7297
sg18
S'worldwide'
p7298
sa(dp7299
g10
S'dopem4n'
p7300
sg12
g58
sg14
V\u0e3f1.06
p7301
sg16
S"HEROIN FREE WILLY'S POSTMAN"
p7302
sg18
S'United Kingdom'
p7303
sa(dp7304
g10
S'spirit'
p7305
sg12
S'100'
p7306
sg14
V\u0e3f5.27
p7307
sg16
S'Tramadol Hcl 50mg X10 Original By Grunenthal Gmbh'
p7308
sg18
S'undeclared'
p7309
sa(dp7310
g10
S'Mseller'
p7311
sg12
S'99'
p7312
sg14
V\u0e3f34.65
p7313
sg16
S'Methadone HCL-500mg Pure w/o adulterants'
p7314
sg18
S'undeclared'
p7315
sa(dp7316
g10
S'richierich302'
p7317
sg12
S'100'
p7318
sg14
V\u0e3f36.37
p7319
sg16
S'co-codamol 30mg codeine / 500mg paracetamol x100'
p7320
sg18
S'United Kingdom'
p7321
sa(dp7322
g10
S'spirit'
p7323
sg12
S'100'
p7324
sg14
V\u0e3f4.13
p7325
sg16
S'Papaver Somniferum Thebaine  1oz of  Seed'
p7326
sg18
S'undeclared'
p7327
sa(dp7328
g10
S'spotter'
p7329
sg12
S'100'
p7330
sg14
V\u0e3f5.31
p7331
sg16
S'oxycodone-acetaminophen'
p7332
sg18
S'us'
p7333
sa(dp7334
g10
S'nucleo'
p7335
sg12
g58
sg14
V\u0e3f381.96
p7336
sg16
S'UoGdL 1, 10g'
p7337
sg18
S'undeclared'
p7338
sa(dp7339
g10
S'DionysianBliss'
p7340
sg12
g58
sg14
V\u0e3f83.04
p7341
sg16
S'Fentanyl Patch 75mcg/h'
p7342
sg18
S'United States of America'
p7343
sa(dp7344
g10
S'BusinessAsAlways'
p7345
sg12
S'93'
p7346
sg14
V\u0e3f9.91
p7347
sg16
S'8mg Suboxone - subutex buprenorphine naloxone tabe'
p7348
sg18
S'United States of America'
p7349
sa(dp7350
g10
S'Avon'
p7351
sg12
S'95'
p7352
sg14
V\u0e3f21.28
p7353
sg16
S'Fentanyl patch 12mcg/h'
p7354
sg18
S'undeclared'
p7355
sa(dp7356
g10
S'4TheeLow'
p7357
sg12
S'100'
p7358
sg14
V\u0e3f0.58
p7359
sg16
S'SPECIAL!50mg TRAMADOL HCL 1.75US a Pill 10MINIMUM!'
p7360
sg18
S'United States of America'
p7361
sa(dp7362
g10
S'nucleo'
p7363
sg12
g58
sg14
V\u0e3f207.87
p7364
sg16
S'UoGdL 1, 5g'
p7365
sg18
S'undeclared'
p7366
sa(dp7367
g10
S'PillowTalk'
p7368
sg12
S'98'
p7369
sg14
V\u0e3f148.60
p7370
sg16
S'High Quality Heroin 5 gram'
p7371
sg18
S'Netherlands'
p7372
sa(dp7373
g10
S'toyotaman'
p7374
sg12
S'100'
p7375
sg14
V\u0e3f7.83
p7376
sg16
S'Opiod analgesic  Co-Proxamol 32/325 x 10 pill '
p7377
sg18
S'United States of America'
p7378
sa(dp7379
g10
S'toyotaman'
p7380
sg12
S'100'
p7381
sg14
V\u0e3f1.77
p7382
sg16
S'Opiod Analgesic Co-Proxamol 32/325 mg  x  2  pills'
p7383
sg18
S'United States of America'
p7384
sa(dp7385
g10
S'Aphex'
p7386
sg12
S'100'
p7387
sg14
V\u0e3f16.09
p7388
sg16
S'Aphex Bag of H(~.25g)'
p7389
sg18
S'United States of America'
p7390
sa(dp7391
g10
S'anchientlib'
p7392
sg12
S'100'
p7393
sg14
V\u0e3f0.00
p7394
sg16
S'Special Order Brezner'
p7395
sg18
S'United States of America'
p7396
sa(dp7397
g10
S'MrDdroMcGillacutty'
p7398
sg12
S'100'
p7399
sg14
V\u0e3f13.21
p7400
sg16
S'OXYMORPHONE 10mg OPANA'
p7401
sg18
S'United States of America'
p7402
sa(dp7403
g10
S'hybridmike'
p7404
sg12
S'100'
p7405
sg14
V\u0e3f48.96
p7406
sg16
S'Dilaudid Hydromorphone 8mg x5 PARTY PACK'
p7407
sg18
S'United States of America'
p7408
sa(dp7409
g10
S'PsiloTRON'
p7410
sg12
S'100'
p7411
sg14
V\u0e3f3.30
p7412
sg16
S'Citric Acid E330'
p7413
sg18
S'United States of America'
p7414
sa(dp7415
g10
S'etizolam'
p7416
sg12
S'98'
p7417
sg14
V\u0e3f2.96
p7418
sg16
S'0.4mg/mL Narcan naloxone hcl injection, USP'
p7419
sg18
S'US'
p7420
sa(dp7421
g10
S'sildenafil'
p7422
sg12
S'100'
p7423
sg14
V\u0e3f19.48
p7424
sg16
S'Tramadol (TRAMADOL HCL) 150mg Pills 10x'
p7425
sg18
S'Germany'
p7426
sa(dp7427
g10
S'sildenafil'
p7428
sg12
S'100'
p7429
sg14
V\u0e3f18.16
p7430
sg16
S'10x Tramadol (TRAMADOL HCL) 100mg'
p7431
sg18
S'Germany'
p7432
sa(dp7433
g10
S'bluedreamer'
p7434
sg12
g58
sg14
V\u0e3f15.63
p7435
sg16
S'Tramadol 50mg - 30 tablets'
p7436
sg18
S'United States of America'
p7437
sa(dp7438
g10
S'theba'
p7439
sg12
S'100'
p7440
sg14
V\u0e3f23.65
p7441
sg16
S'Kratom - 100 capsules'
p7442
sg18
S'US'
p7443
sa(dp7444
g10
S'sildenafil'
p7445
sg12
S'100'
p7446
sg14
V\u0e3f25.10
p7447
sg16
S'50ml TRAMADOL 100mg/ml >>> liquid <<<'
p7448
sg18
S'Germany'
p7449
sa(dp7450
g10
S'spirit'
p7451
sg12
S'100'
p7452
sg14
V\u0e3f5.62
p7453
sg16
S'Codeine Phosphate 30 mg /500 Paracetamol x10'
p7454
sg18
S'undeclared'
p7455
sa(dp7456
g10
S'ChicagoDrug'
p7457
sg12
S'100'
p7458
sg14
V\u0e3f0.66
p7459
sg16
S'DARVOCET-N 100 (Propoxyphene-N/APAP 100-650)'
p7460
sg18
S'US'
p7461
sa(dp7462
g10
S'4TheeLow'
p7463
sg12
S'100'
p7464
sg14
V\u0e3f1.09
p7465
sg16
S'Cyclizine 25mg BEST OPIATE POTENTIATOR 3.50US!'
p7466
sg18
S'USA'
p7467
sa(dp7468
g10
S'theba'
p7469
sg12
S'100'
p7470
sg14
V\u0e3f13.13
p7471
sg16
S'Kratom - 50 capsules'
p7472
sg18
S'US'
p7473
sa(dp7474
g10
S'italianpilot'
p7475
sg12
S'98'
p7476
sg14
V\u0e3f7.47
p7477
sg16
S'NYC Dope Individual Bags'
p7478
sg18
S'United States of America'
p7479
sa(dp7480
g10
S'vicodin'
p7481
sg12
S'99'
p7482
sg14
V\u0e3f3.22
p7483
sg16
S'acetominaphen / oxycodone 325/10mg ( percocet )'
p7484
sg18
S'United States of America'
p7485
sa(dp7486
g10
S'vicodin'
p7487
sg12
S'99'
p7488
sg14
V\u0e3f9.91
p7489
sg16
S'oxy / oxycontin 30mg IR - crushable'
p7490
sg18
S'United States of America'
p7491
sa(dp7492
g10
S'goodfella1'
p7493
sg12
S'99'
p7494
sg14
V\u0e3f39.27
p7495
sg16
S'5 Oxycodone 30mg IR '
p7496
sg18
S'United States of America'
p7497
sa(dp7498
g10
S'Mseller'
p7499
sg12
S'99'
p7500
sg14
V\u0e3f6.89
p7501
sg16
S'Methadone 130mg - 30% PRICE OFF + 30mg extra FREE'
p7502
sg18
S'undeclared'
p7503
sa(dp7504
g10
S'vicodin'
p7505
sg12
S'99'
p7506
sg14
V\u0e3f3.22
p7507
sg16
S'Norco / hydrocodone 10mg Watson brand'
p7508
sg18
S'United States of America'
p7509
sa(dp7510
g10
S'MrDdroMcGillacutty'
p7511
sg12
S'100'
p7512
sg14
V\u0e3f10.09
p7513
sg16
S'Morphine Sulfate 60mg ER tablets'
p7514
sg18
S'United States of America'
p7515
sa(dp7516
g10
S'AlterEgo'
p7517
sg12
S'100'
p7518
sg14
V\u0e3f9.71
p7519
sg16
S'20g opium tea (dried & crushed natural poppy pods)'
p7520
sg18
S'Austria'
p7521
sa(dp7522
g10
S'hybridmike'
p7523
sg12
S'100'
p7524
sg14
V\u0e3f11.03
p7525
sg16
S'Dilaudid 8 mg Hydromorphone IR'
p7526
sg18
S'United States of America'
p7527
sa(dp7528
g10
S'richierich302'
p7529
sg12
S'100'
p7530
sg14
V\u0e3f5.55
p7531
sg16
S'Tramadol Hydrocloride 50MG  x10 Capsules'
p7532
sg18
S'United Kingdom'
p7533
sa(dp7534
g10
S'Pharmville'
p7535
sg12
S'99'
p7536
sg14
V\u0e3f13.05
p7537
sg16
S'Percocet 5mg (Mallinckrodt) 5/325 10 pack $4.00/ea'
p7538
sg18
S'United States of America'
p7539
sa(dp7540
g10
S'aakoven'
p7541
sg12
S'98'
p7542
sg14
V\u0e3f12.57
p7543
sg16
S'10 pieces oxycontin , 5 mg , light bleu !'
p7544
sg18
S'Netherlands'
p7545
sa(dp7546
g10
S'theOCguy'
p7547
sg12
S'100'
p7548
sg14
V\u0e3f16.51
p7549
sg16
S'OxyContin 10 mg, 7x pills (70 mg total)'
p7550
sg18
S'Western EU'
p7551
sa(dp7552
g10
S'themunchies'
p7553
sg12
S'100'
p7554
sg14
V\u0e3f43.59
p7555
sg16
S'5 Bags EAST COAST POWDER HEROIN'
p7556
sg18
S'United States of America'
p7557
sa(dp7558
g10
S'Pharmville'
p7559
sg12
S'99'
p7560
sg14
V\u0e3f58.28
p7561
sg16
S'Percocet 5mg (Mallinckrodt) 5/325 50 pack $3.50/ea'
p7562
sg18
S'United States of America'
p7563
sa(dp7564
g10
S'vicious86'
p7565
sg12
S'100'
p7566
sg14
V\u0e3f2.99
p7567
sg16
S'Turkish Opium Poppies  !!!Big Producers!!!!'
p7568
sg18
S'US  '
p7569
sa(dp7570
g10
S'davidd'
p7571
sg12
S'99'
p7572
sg14
V\u0e3f1.61
p7573
sg16
S'1 x Super Duper Opiate Potentiation Pack!'
p7574
sg18
S'United States of America'
p7575
sa(dp7576
g10
S'theba'
p7577
sg12
S'100'
p7578
sg14
V\u0e3f14.34
p7579
sg16
S'Dihydrodeine 30mg x 10 tablets (just DHC, no APAP)'
p7580
sg18
S'US'
p7581
sa(dp7582
g10
S'Pharmville'
p7583
sg12
S'99'
p7584
sg14
V\u0e3f3.34
p7585
sg16
S'Super Special: MS Contin morphine sulfate 30mg 1pc'
p7586
sg18
S'United States of America'
p7587
sa(dp7588
g10
S'Pharmville'
p7589
sg12
S'99'
p7590
sg14
V\u0e3f24.52
p7591
sg16
S'Percocet 5mg (Mallinckrodt) 5/325 20 pack $3.75/ea'
p7592
sg18
S'United States of America'
p7593
sa(dp7594
g10
S'vicodin'
p7595
sg12
S'99'
p7596
sg14
V\u0e3f8.26
p7597
sg16
S'5x vicodin 5mg Hydrocodone 5/500'
p7598
sg18
S'United States of America'
p7599
sa(dp7600
g10
S'anchientlib'
p7601
sg12
S'100'
p7602
sg14
V\u0e3f6.56
p7603
sg16
S'Hydromorphone (Dilaudid) 4MG '
p7604
sg18
S'United States of America'
p7605
sa(dp7606
g10
S'free willy'
p7607
sg12
S'100'
p7608
sg14
V\u0e3f7.44
p7609
sg16
S'UK Gear 0.1 '
p7610
sg18
S'United Kingdom'
p7611
sa(dp7612
g10
S'PillowTalk'
p7613
sg12
S'98'
p7614
sg14
V\u0e3f36.32
p7615
sg16
S'High Quality Heroin 1gram'
p7616
sg18
S'Netherlands'
p7617
sa(dp7618
g10
S'3dames'
p7619
sg12
S'100'
p7620
sg14
V\u0e3f18.56
p7621
sg16
S'Tramadol (Ultram) 50 mg x 50'
p7622
sg18
S'worldwide'
p7623
sa(dp7624
g10
S'richierich302'
p7625
sg12
S'100'
p7626
sg14
V\u0e3f5.00
p7627
sg16
S'co-codamol 30mg codeine / 500mg paracetamol x 10'
p7628
sg18
S'United Kingdom'
p7629
sa(dp7630
g10
S'goodfella1'
p7631
sg12
S'99'
p7632
sg14
V\u0e3f39.28
p7633
sg16
S'5 Oxycodone 30mg Mallinckrodt Brand'
p7634
sg18
S'United States of America'
p7635
sa(dp7636
g10
S'Paperchasing'
p7637
sg12
S'99'
p7638
sg14
V\u0e3f10.02
p7639
sg16
S'5mg Roxicodone - Qualitest  x 5'
p7640
sg18
S'United States of America'
p7641
sa(dp7642
g10
S'bigunit'
p7643
sg12
S'99'
p7644
sg14
V\u0e3f24.41
p7645
sg16
S'Hydrocodone/APAP 7.5mg/750 mg tabs x 10'
p7646
sg18
S'us, east coast'
p7647
sa(dp7648
g10
S'3dames'
p7649
sg12
S'100'
p7650
sg14
V\u0e3f33.02
p7651
sg16
S'Tramadol (Ultram) 50 mg x 100'
p7652
sg18
S'worldwide'
p7653
sa(dp7654
g10
S'themunchies'
p7655
sg12
S'100'
p7656
sg14
V\u0e3f82.56
p7657
sg16
S'BUNDLE EAST COAST POWDER DOPE'
p7658
sg18
S'United States of America'
p7659
sa(dp7660
g10
S'theba'
p7661
sg12
S'100'
p7662
sg14
V\u0e3f2.86
p7663
sg16
S'Kratom - 10 capsules'
p7664
sg18
S'US'
p7665
sa(dp7666
g10
S'theba'
p7667
sg12
S'100'
p7668
sg14
V\u0e3f5.19
p7669
sg16
S'Kratom - 20 capsules'
p7670
sg18
S'US'
p7671
sa(dp7672
g10
S'brownbud'
p7673
sg12
S'84'
p7674
sg14
V\u0e3f13.64
p7675
sg16
S'5 Grams "Hashpium" -- Hash + Opium'
p7676
sg18
S'India'
p7677
sa(dp7678
g10
S'PharmacyX'
p7679
sg12
S'100'
p7680
sg14
V\u0e3f15.23
p7681
sg16
S'Morphine Sulfate 100mg ER *Crushable* tablets X 1'
p7682
sg18
S'United States of America'
p7683
saaa.